BIOS CP/A, Buerocomputer (A5120/30 u. ae.)	MACRO-80 V3.50	25-Oct-85	Page	1


                                	title	BIOS CP/A, Buerocomputer (A5120/30 u. ae.)
                                	name	('BIOSMOD')
                                	.z80
                                	.tfcond		;bei Assembler-Aufruf mit "/X" vollst. Listing
                                
                                ; Versionsangabe:
                                ;----------------
  0019                          verst	equ	25	;Tag
  0009                          versm	equ	09	;Monat
  0059                          versj	equ	89	;Jahr
                                
                                	.list
                                
                                ;=====================================================================
                                ; Vereinbarungen fuer aktuelle Variante
                                ; Buerocomputer A5120/30
                                ;=====================================================================
  0000                          dev	equ	oem
  0006                          cpu	equ	k2526
  0019                          cpuclk	equ	25	;Takt der CPU; 25 bei 2,5Mhz; 40 bei 4,0Mhz
  0001                          fdc	equ	k5122
  0000                          crt	equ	k7024
                                
  F800                          bsanf2	equ	0f800h		;Anfang Bildschirmpuffer BAB2
  FC00                          bsanf1	equ	bsanf2+400h	;Anfang Bildschirmpuffer BAB1
  0800                          crtbfl	aset	800h		;benoetigter Bildschirmpuffer im Haupt-RAM
                                				;400h/800h, wenn Bildschirm nicht weggeschaltet
                                				;0   , wenn Bildschirm nicht im Haupt-RAM,
                                				;dann Makros 'crton', 'crtoff' definieren!
                                
                                ; eventuelle Routinen zum Aktivieren/Deaktivieren des Bildschirmpuffers
                                ; (ueber MEMDI/MEMDI1/MEMDI2) koennen hier eingefuegt werden:
                                
                                ; Aktivieren Bildschirmpuffer, nur Reg. BC,HL; kein Stack!
                                ;----------------------------
                                crton	MACRO
                                	ENDM
                                
                                ; Deaktivieren Bildschirmpuffer, nur Reg. BC,HL; kein Stack!
                                ;------------------------------
                                crtoff	MACRO
                                	ENDM
                                ;=====================================================================
                                
                                
                                	entry	BIOS,BIOSCE
  0E00                          bdosln	equ	0e00h
  0800                          ccpln	equ	0800h
                                
  0000'                         BIOS:
                                
                                ;***********************************************************
                                ; Generierungsvarianten und andere Equ's:
                                ; =======================================
                                
                                ; Vorbemerkung:
                                ; Alle in '"..."' eingeschlossenen Worte sind Bezeichner,
                                ; die in dem vorliegenden Assembler-Quelltext gesetzt werden.
                                
                                ; BIOS-Laenge (Grundwert, wird spaeter evtl. modifiziert!)
                                ; -----------
                                ;	minimal erreichbare BIOS-Laenge
                                ;	 ohne Bildschirmpuffer
                                ;	 ohne Interruptvektoren
                                ;	 0 Diskettenlaufwerke
BIOS CP/A, Buerocomputer (A5120/30 u. ae.)	MACRO-80 V3.50	25-Oct-85	Page	1-1


                                ;	 ohne Diskettenpuffer
                                ;	 ohne Extra's
  0880                          biosln	aset	0880h ;07d0h
                                
                                ; Durch Weglassen der CP/A-Extras kann man den TPA-Bereich
                                ; um den Wert vergroessern, der sonst zu 'biosln' addiert
                                ; wird.
                                
                                ;	Hauptspeicher
                                ;	~~~~~~~~~~~~~
                                ; Bei Kaltstart erfolgt ein nichtzerstoerender RAM-Test von
                                ; "tpa"+3 bis "tpaend".
                                ; Wird dabei ein Speicherfehler erkannt, so wird auf die
                                ; letzten 3 fehlerfreien RAM-Zellen ein Sprung zum BDOS abge-
                                ; legt und der BDOS-Sprung auf Hauptspeicherplatz 5-7 auf
                                ; diesen Sprung gefuehrt. Ausserdem erfolgt eine entsprechende
                                ; Fehlermeldung beim Kaltstart.
                                
  0040                          ramkb	equ	64	;RAM-Groesse in Kilobytes
                                ;			 Bildschirmpuffer am Ende!
  0000                          rambyt	equ	ramkb*1024
                                
                                ; Falls eine 48k Speichererweiterung (OSS 062-8471) vorhanden
                                ; ist, so wird beim Kaltstart eine RAM-Floppy "M:" fuer diesen
                                ; Bereich angelegt.
                                ; Bei "oss"=0 erfolgt kein Test auf eine evtl. vorhandene
                                ; OSS-Karte.
                                
  0000                          oss	equ	0	;=0, wenn keine OSS-Karte vorhanden
                                ;			 =1, wenn evtl. OSS-Karte vorhanden
                                	IF	oss
                                	ENDIF
                                
                                
                                ; Wenn eine 16-Bit-Erweiterungskarte mit 256k-Speicher EM256 in-
                                ; stalliert ist, so kann dieser Speicher als RAM-Floppy 'M:' be-
                                ; nutzt werden.
                                ; Bei "em256" ungleich Null wird das Vorhandensein einer Erweite-
                                ; rungskarte getestet. Bei vorhandener EM256 wird beim Kaltstart
                                ; die RAM-Floppy eingerichtet.
                                ;
  0001                          em256	equ	1	;=0 ,wenn keine 16-Bit-Erweiterung
                                						;=1 ,wenn 16-Bit-Erweiterung vorhanden
                                	IF	em256
  0A40                          biosln	aset	biosln+1c0h
  4000                          em256adr equ	4000h	;256k-RAM wird vom U880 unter Adr.
                                			;4000..07FFFH angesprochen
                                			;!! 0 nicht moeglich wegen Konflikt mit Kaltstart
  00A8                          modadr	equ	0a8h	;Moduladresse der em256
                                	ENDIF
                                
                                ; Die RAM-Floppy mkd256 kann als Laufwerk 'M:' angesprochen werden.
                                ; Bei "mkd256" ungleich Null wird das Vorhandensein einer entsprechenden
                                ; Karte getestet. Ist diese vorhanden wird sie beim Kaltstart initialisiert
  0000                          mkd256	equ	0	; =0, ohne RAM-Floppy
                                							; =1, mit
                                
                                	IF	mkd256
                                	ENDIF
                                
  0000                          kes	equ	0	;keine Testram KES unterstuetzt
                                
                                ; Wenn mindestens eine RAF-Karte des ZWG der AdW vorhanden ist (beliebig
                                ; bestueckt, auch nur teilweise und/oder gemischt, max. 2M Byte pro Karte,
                                ; max. 4 Karten mit aufeinanderfolgenden E/A-Adressen), so kann bzw.
BIOS CP/A, Buerocomputer (A5120/30 u. ae.)	MACRO-80 V3.50	25-Oct-85	Page	1-2


                                ; koennen diese als RAM-Floppy 'M:' benutzt werden (ueber "SWAP A: M:"
                                ; bei Bedarf spaeter auch als LW A:)
                                ; Bei "raf" ungleich Null wird das Vorhandensein von RAF-Karten getestet.
                                ; Bei vorhandener(n) Karte(n) wird beim erstmaligen Kaltstart nach dem
                                ; Einschalten des Stromes die RAM-Floppy eingerichtet, bei RESET bleibt ihr
                                ; Inhalt erhalten.
                                ;
  0000                          raf	equ	0 ;=0 ,wenn keine RAF-Karte
                                					;=1 ,wenn RAF-Karte(n) vorhanden
                                 IF	raf
                                 ENDIF
                                
                                ; Wenn mindestens eine NANOS-256k-DRAM-Karte vorhanden ist (beliebig
                                ; bestueckt, auch nur teilweise und/oder gemischt, max. 256k Byte pro Karte,
                                ; max. 4 Karten mit jeweils beliebigen E/A-Adressen), so kann bzw.
                                ; koennen diese als RAM-Floppy 'M:' benutzt werden (ueber "SWAP A: M:"
                                ; bei Bedarf spaeter auch als LW A:)
                                ; Bei "rna" ungleich Null wird das Vorhandensein von NANOS-RAF-Karten getestet.
                                ; Bei vorhandener(n) Karte(n) wird beim erstmaligen Kaltstart nach dem
                                ; Einschalten des Stromes die RAM-Floppy eingerichtet, bei RESET bleibt ihr
                                ; Inhalt erhalten.
                                ;
  0000                          rna	equ	0 ;=0 ,wenn keine NANOS-RAF-Karte
                                					;=1 ,wenn mindestens eine NANOS-RAF-Karte da
                                 IF	rna
                                 ENDIF
                                
  0001                          ramfl	equ	oss+kes+em256+mkd256+raf+rna
                                
                                ;	Kaltstart
                                ;	~~~~~~~~~
                                ; Es besteht die Moeglichkeit, beim Kaltstart des Systems automatisch
                                ; ein Kommando auszufuehren (dies kann auch ueber SUBMIT eine Kommando-
                                ; folge sein!).
                                
                                 IF1
                                 ENDIF
  0000                          cldcmx	equ	0		;=0, wenn Kommando nur bei Kaltstart
                                				;    nach Einschalten auszufuehren
                                				;=1, wenn Kommando auch bei RESET
                                				;    auszufuehren
                                
                                ;	Warmstart
                                ;	~~~~~~~~~
                                ; Im Normalfall wird das CCP von einer im BIOS gehaltenen Kopie
                                ; bei jedem Warmstart vor das BDOS kopiert, wodurch keine Sy-
                                ; stemspuren auf Laufwerk A erforderlich sind. Um einen maximal
                                ; grossen TPA zu erhalten, sind auch andere Varianten moeglich:
                                
  0000                          wbootv	equ	0
                                ;		=0:	CCP-Kopie im BIOS (2K grosser Puffer)
                                ;		=1:	keine CCP-Kopie, Warmstart=Kaltstart
                                ;			(Kaltstart-Kommando sollte leer sein!)
                                ;		=2:	keine CCP-Kopie, CCP aus File '@os.com'
                                ;		=3:	CCP-Kopie in RAM-Floppy (RAM-Floppy
                                ;			dann um 2K kleiner),
                                ;			wenn keine RAM-Floppy vorhanden
                                ;			(siehe "Hauptspeicher"), so wie wbootv=1
                                ;		=4:	keine CCP-Kopie, CCP aus File '@ccp.com'
                                ;			selbstversch. vor BDOS o. Treiber geladen
                                ; Bei "wbootv"<>0 und Arbeit ohne Diskettenpuffer kann der
                                ; Kaltstart-Code u.U. bis in den Bildschirmpuffer reichen,
                                ; wodurch der Bildschirm beim Kaltstart kurzzeitig undefi-
                                ; niert sein kann.
                                
BIOS CP/A, Buerocomputer (A5120/30 u. ae.)	MACRO-80 V3.50	25-Oct-85	Page	1-3


                                	IF	wbootv eq 0
  12D0                          biosln	aset	biosln+90h+ccpln;2K fuer CCP-Kopie
                                	ENDIF
                                	IF	(wbootv eq 2) or (wbootv eq 3) or (wbootv eq 4)
                                	ENDIF
                                
                                ;	BIOS-Monitor
                                ;	~~~~~~~~~~~~
  0000                          monitor equ	0	;=1: mit  BIOS-Monitor
                                ;			 =0: ohne
                                	IF	monitor
                                	ENDIF
                                
                                
                                ;	STOP-Funktion
                                ;	-------------
  0001                          stpvar	equ	1	;=1: mit Unterstuetzung STOP-Funktion
                                			;=0: ohne,
                                			;    es werden auch alle Drucker-Sondert. ign.
                                	IF	stpvar
  13A0                          biosln	aset	biosln+0d0h
                                	ENDIF
                                
                                ;	Speicherschutz
                                ;	~~~~~~~~~~~~~~
  0000                          mprot	equ	0	;=1: mit Speicherschutz
                                ;			 =0: ohne
                                	IF	mprot
                                	ENDIF
                                
                                ;	Status-Zeile
                                ;	------------
  0000                          cpastz	equ	0	;Statuszeile hardware-maessig nicht moeglich
                                
                                	IF	cpastz
                                	ENDIF
                                
                                ;	Fehlermeldungen des BIOS
                                ;	------------------------
  0001                          errvar	equ	1	;=1: mit BIOS-Fehlermeludngen
                                			;=0: ohne
                                	IF	errvar
  13F0                          biosln	aset	biosln+50h
                                	ENDIF
                                
                                ;	Uhr
                                ;	---
  000C                          sysctc	equ	0ch	;System-CTC, Kanal 0
                                ; Fuer die Uhr wird Kanal 2 und 3 benutzt (5ms, 1sec),
                                ; Kanal 0,1 steht fuer den Anwender frei
                                
  0001                          uhrvar	equ	1	;=1: mit BCD-Uhr (Platz siehe "bcduhr")
                                ;			 =0: ohne
                                	IF	uhrvar
  1440                          biosln	aset	biosln+50h
  0000                          datvar	equ	0	;=1 mit, =0 ohne Verwaltung des Datums
                                  IF datvar
                                  ENDIF
                                	ENDIF
                                
                                ;	IOBYTE
                                ;	------
  0001                          iobvar	equ	1	;=1: mit IOBYTE-Unterstuetzung
                                			;=0: ohne (wie IOBYTE=00h)
                                	IF	iobvar
BIOS CP/A, Buerocomputer (A5120/30 u. ae.)	MACRO-80 V3.50	25-Oct-85	Page	1-4


  14E0                          biosln	aset	biosln+0a0h
                                	ENDIF
                                
                                ;	Vereinbarungen fuer zeichenweise arbeitende Geraete (i.a. Drucker)
                                ;	~~~~~~~~~~~~~~~~~~~~~~~~~~~~~~~~~~~~~~~~~~~~~~~~~~~
                                ; gaengige Hardware (auch andere zulaessig):
                                ;	Karte A51xx	Daten	Status	CTC S/E Bemerkungen
                                ;	K8025		5e	5f	58/58	Normalfall IFSS
                                ;	K8025		5c	5d	58/58	i.a. Tastatur K7637
                                ;						oder Zusatzdrucker
                                ;						oder Digitalisiergeraet
                                ;	K8025		52	53	0c/0c	2. IFSS -Ausgang
                                ;			52	53	59/59	alternative Tastatur K7637
                                ;	K6028/K8025	50	51/53	0c/0c	V.24-Ausgang
                                ;	K8025.22/.32	a1	a3	a8/a8	AFS Spezial EC8404M
                                ;	K6022		54	56		Normalfall PIO-Drucker
                                ;	K6022		50	51		1154 ueber ADA -> Humboldt-Uni
                                ;	1154 Spezial	54	56		1154 Spezialanschluss
                                ;						1156-Anschl. siehe BIOSCP56.MAC
                                ;	1156 Spez. neg. 38	39		1156 ueber KME3, neg. Pegel
                                ;	1156 Spez. pos. 38	39		1156 ueber KME10,pos. Pegel
                                
                                ; Diese Ausgaenge koennen physischen CP/M-Geraeten entsprechend
                                ; der I/O-Byte-Belegung zugewiesen werden:
                                ; TTY:	bei Kaltstart zugewiesener Drucker		(kann fehlen)
                                ; LPT:	zweiter Drucker					(kann fehlen)
                                ; UC1:	Geraetekopplung ueber CON: oder RDR:/PUN:	(kann fehlen)
                                ;	Fuer UC1: nur Treiber-Typ DC1/3 oder DTR erlaubt (kein PIO)!
                                
                                ; Im folgenden fuer 'iobxxx', 'xxxdat', 'xxxsta', 'xxxcts', 'xxxctr'
                                ; jeweils die Parameter angeben:
                                ; (=00000 fuer fehlenden, d.h. vom BIOS nicht unterstuetzten Tr.)
                                ; Sind alle Treiber-Nr. =0, so entfaellt der gesamte Treiber-
                                ; teil im BIOS (fuer Testzwecke zum Erreichen eines grossen
                                ; TPA, alle Ausgaben und Druckersondertasten ignoriert)
                                ; Format fuer 'iobxxx':
                                ; PSCBT
                                ; PSCB	nur bei T<5 angeben, sonst 0000
                                ; P		Paritaet
                                ;		0 ohne Paritaet; 1 ungerade Paritaet; 2 gerade Paritaet
                                ;  S		Stopbits
                                ;		1  1   Stopbit
                                ;		2  2   Stopbits
                                ;		3  1.5 Stopbits
                                ;   C		Anzahl der Bits pro Zeichen (5..8)
                                ;    B		Baudrate
                                ;		1:9600,2:4800,3:2400,4:1200,5:600,6:300,7:150,8:100,9:75
                                ;     T		Treiber- und Protokoll-Typ
                                ;		0:DC1/DC3  (Normalfall IFSS)
                                ;		1:DTR im Kanal A mit Statusabfrage DTR ueber Kanal B, DCD
                                ;			   (Normalfall V.24 ueber K6028/K8025 mit DTR an DSR)
                                ;		2:Strombauch fuer LX86 (Information Koll. Tief, Bln. 6346461)
                                ;		  fuer PSCBT: 01812 (Baudrate wird durch 8 auf 1200bd geteilt)
                                ;		  fuer xxxdat: 5eh, fuer xxxsta: 5fh, fuer xxxctx: 58h
                                ;		3:DTR im Kanal A mit Statusabfrage DTR ueber Kanal A, CTS
                                ;			   (V.24 ueber K6028/K8025 bei DTR an CTS statt an DSR)
                                ;		5:PIO
                                ;		6:PIO1154 Spezialinterface (Hardware-Loesung nicht nachnutzbar)
                                ;		7:PIO1156 neg. Pegel (Hardware siehe BIOSCP56.MAC)
                                ;		8:PIO1156 pos. Pegel
                                ;		9:PIO1154 umgebaute ADA (Hardware siehe BIOSCH54.MAC)
                                
                                ; Standard-Drucker
                                ;=================
                                
BIOS CP/A, Buerocomputer (A5120/30 u. ae.)	MACRO-80 V3.50	25-Oct-85	Page	1-5


                                ;iobtty	equ	11710	;ung. P.;1 Stbit;7 Bit;9600;DC1/3 (z.B. 1152,1157,63xx)
                                ;ttydat	equ	5eh	;IFSS Normalausgang
                                ;ttysta	equ	5fh
                                ;ttycts	equ	58h
                                ;ttyctr	equ	58h
                                
  0713                          iobtty equ      01811   ;ohne P. ;  1 Stbit; 8 Bit 9600; DTR ueb.Kanal A
  0050                          ttydat equ      50h     ; V.24 - Ausgang
  0051                          ttysta equ      51h
  000C                          ttycts equ      0ch
  000C                          ttyctr equ      0ch
                                 
                                ; zweiter Drucker
                                ;================
                                
                                ;ioblpt	equ	0	;ohne P.; 1 Stbit;8 Bit;9600;DTR (z.B. EPSON LX86)
                                ;lptdat	equ	50h	;V.24
                                ;lptsta	equ	51h
                                ;lptcts	equ	0ch
                                ;lptctr	equ	0ch
                                
  2DBE                          ioblpt	equ	11710	;ung. P.;1 Stbit;7 Bit;9600;DC1/3 (z.B. SD1152,K63xx)
  005E                          lptdat	equ	5eh	;IFSS Normalausgang
  005F                          lptsta	equ	5fh
  0058                          lptcts	equ	58h
  0058                          lptctr	equ	58h
                                
                                ; Kopplung
                                ;=========
                                				
                                ;iobuc1	equ	0	;ohne P.;1 Stbit;8 Bit;9600;DTR
                                ;uc1dat	equ	50h	;am V.24-Ausgang
                                ;uc1sta	equ	51h
                                ;uc1cts	equ	0ch
                                ;uc1ctr	equ	0ch
                                ;uc1bfl	equ	20		;Laenge des UC1:-Puffers
                                				;muss z.B. 2k Bildschirmrollen abfangen!
                                				;d.h. >=20 bei 9600 bd
                                
  0713                          iobuc1	equ	01811	;ohne P.;1 Stbit;8 Bit;9600;DTR
  0050                          uc1dat	equ	50h	;am V.24-Ausgang
  0051                          uc1sta	equ	51h
  000C                          uc1cts	equ	0ch
  000C                          uc1ctr	equ	0ch
  0014                          uc1bfl	equ	20		;Laenge des UC1:-Puffers
                                				;muss z.B. 2k Bildschirmrollen abfangen!
                                				;d.h. >=20 bei 9600 bd
                                				
                                ; Ueber diese Treiber koennen unter Beachtung des unterschiedlichen
                                ; Steuerzeichenvorrats beliebige Geraete angeschlossen werden, die
                                ; Treiber-Software ist steuerzeichenunabhaengig
                                ; (ausser TTY: und LPT: bei generierter Variante 2-Bahn-Drucker).
                                
                                ; Es besteht die Moeglichkeit, 2-Bahn-Drucker getrennt fuer
                                ; jede Bahn zu betreiben (nur Druckerschnittstelle 1):
  0000                          l2bahn	equ	0		;>0: Position fuer 2. Bahn (i.a. 138)
                                				;=0: keine 2. Bahn unterst.
                                
                                ;----Auswertung der ausgewaehlten Varianten
                                 IF1
                                 ENDIF
                                
  FFFF                          chdvar	equ	(iobtty ne 0) or (ioblpt ne 0) or (iobuc1 ne 0)
                                 IF	chdvar
                                  IF cdtdc1 or cdtdtr		;IFSS, V.24
BIOS CP/A, Buerocomputer (A5120/30 u. ae.)	MACRO-80 V3.50	25-Oct-85	Page	1-6


  1630                          biosln	aset	biosln+150h
                                  ENDIF
                                  IF cdtsib			;Strombauch
                                  ENDIF
                                  IF cdtpio			;PIO
                                  ENDIF
                                  IF cdtp54			;Spez. 1154
                                  ENDIF
                                  IF cdth54			;ADA 1154
                                  ENDIF
                                  IF cdtn56			;1156 neg
                                  ENDIF
                                  IF cdtp56			;1156 pos.
                                  ENDIF
                                
                                  IF stpvar
  16C0                          biosln	aset	biosln+090h	;asynchrone LST:-Routinen
                                				;und Hardcopy
                                  ENDIF
                                
                                  IF	iobuc1
  17B4                          biosln	aset	biosln+0e0h+uc1bfl ;UC1:-Routinen + UC1:-Puffer
                                  ENDIF
                                
                                  IF l2bahn
                                  ENDIF
                                
                                 ENDIF ;chdvar
                                ;---Ende Auswertung zeichenweise Treiber
                                
                                
                                ;	Vereinbarungen fuer Disketten
                                ;	~~~~~~~~~~~~~~~~~~~~~~~~~~~~~
                                
  0001                          @write	equ	1	;bei <>0 auch Schreiben auf Disketten unterst.
                                ; Es werden maximal 4 Diskettenlaufwerke A..D dicht von A
                                ; beginnend unterstuetzt.
                                ; Diese koennen sowohl 5 1/4 " als auch 8" Laufwerke sein
                                ; (auch gemischte Konfigurationen erlaubt!).
                                ; Fuer jedes Laufwerk kann Zuruecklesen nach jedem Schreiben verlangt
                                ; werden (Verify), fuer sichere Disketten und Laufwerke dies jedoch i.a.
                                ; nicht notwendig (Schreiben geht dann genauso schnell wie Lesen), lediglich
                                ; beim Anlegen einer Sicherheitskopie sollte explizit Verify vom Kopier-
                                ; programm verlangt werden ([v] bei POWER bzw. DIENST). Die bei der System-
                                ; generierung eingestellte Variante kann durch FORMAT laufwerksspezifisch
                                ; geaendert werden.
                                
                                ; Folgende Angaben sind verbindlich:
                                ;DSZTT
                                ;D		Density; 0 single (SD bzw. FM), 1 double (DD bzw. MFM)
                                ; S		Sided; 0 single (SS), 1 double (DS)
                                ;		bei Verify nach Schreiben S+2 angeben
                                ;  Z		5 fuer 5 1/4 ", 8 fuer 8 "
                                ;   TT		Anzahl der tracks
                                ; z.B.
                                ; 10540		DD, SS, 5", 40 Tracks (z.B. K5600.10)
                                ; 10580		DD, SS, 5", 80 Tracks (z.B. K5600.20)
                                ; 11580		DD, DS, 5", 80 Tracks (K5601 !!!)
                                ; 00877		SD, SS, 8", 77 Tracks (z.B. MF3200)
                                ; 10877		DD, SS, 8", 77 Tracks (z.B. K5602.10, MF6400))
                                ; 0		nicht ex. (immer am Ende!)
                                
                                ;diskA	equ	13580 ;DD, DS mit Verify nach Schreiben, 5", 80 Tracks (K5601)
                                ;diskB	equ	13580
                                ;diskC	equ	13580
BIOS CP/A, Buerocomputer (A5120/30 u. ae.)	MACRO-80 V3.50	25-Oct-85	Page	1-7


                                ;diskD	equ	0
                                
  2D3C                          diskA	equ	11580
  2D3C                          diskB	equ	11580
  2D3C                          diskC	equ	11580
  0000                          diskD	equ	0
                                
                                ; Es wird eine automatische Formaterkennung fuer gaengige CP/M-
                                ; Diskettenformate einschliesslich der SCP-Hausformate von CP/A
                                ; unterstuetzt. Dies kann unterdrueckt werden, wenn nur mit
                                ; festen Formaten gearbeitet wird (und eine extra CP/A-Variante
                                ; fuer den Datenaustausch mit Formaterkennung existiert). In
                                ; diesem Fall haben die Disketten das Standard-CP/A-Format ent-
                                ; sprechend dem vorgegebenen LW-Typ.
                                
  0001                          format	equ	1	;=1 mit, =0 ohne Routinen fuer autom. Formaterkennung
  0000                          @fsys	equ	0	;=1 mit, =0 ohne Systemspuren fuer Standardformat
                                 IF format
  0001                          @fact	equ	1	;=1 mit, =0 ohne automatische Formaterkennung scharf
                                 ENDIF
                                 IF format
  1A04                          biosln	aset	biosln+250h	;Routinen +Tabellen
                                 ENDIF
                                
                                ; Zur automatischen Format-Erkennung von SIOS-Datendisketten wird
                                ; auf 40h in Spur 0, Sektor 1 geprueft. Solche Disketten duerfen
                                ; also keine System-Lader-Informationen haben und werden dann als
                                ; "CP/M"-Disketten ohne Systempuren behandelt. Dadurch ist die Anwen-
                                ; dung von Original-Konvertierungsprogrammen IBM<->CP/M moeglich
                                ; {unter SCP existierende Programme laufen u.a. nur dann, wenn sie
                                ; konsequent den BIOS-Entry 30h (Sektornr. uebersetzen) nutzen!}.
                                
                                ; Ohne automatische Formaterkennung oder bei vorhandenen System-Lader-
                                ; informationen auf der SIOS-Diskette muss das Format explizit einge-
                                ; stellt werden (26*128 einseitig ohne Systemspuren).
                                
                                 IF1
                                 ENDIF
  0003                          disk5	aset	dsk5fm+dsk5mf
  0000                          disk8	aset	dsk8fm+dsk8mf
  0003                          disknb	aset	disk5+disk8
                                 IF disknb ne 0
  1F04                          biosln	aset	biosln+500h
                                 ENDIF
  2045                          biosln	aset	biosln+disknb*6bh	;Diskettensteuerbloecke
  2045                          biosln	aset	biosln+dsk8mf*26	;Verlaengerung Sektortab.
  20D5                          biosln	aset	biosln+disk8*16+dsk80*48;Checksize beruecks.
                                
                                ; Die Disketten Ein-/Ausgabe kann gepuffert verlaufen.
                                ; "dbufsz"<=7 fuehrt zur ungepufferten Arbeit (Codeeinsparung).
                                ; Die Angabe der Pufferlaenge erfolgt als Exponent von 2, d.h.
                                ; die Puffergroesse ist 2**dbufsz !
                                
  000A                          dbufsz	equ	10		;2**dbufsz = Pufferlaenge
                                	IF	dbufsz gt 7
  2655                          biosln	aset	biosln+180h+(1 shl dbufsz);Diskpuffer dazu
                                	ENDIF
                                
                                ; Der Diskettenpuffer muss mindestens so gross wie die groesste
                                ; physische Sektorlaenge entspr. dem Spurformat sein, also
                                ; i.a. 1K. Fuer eine exakte BDOS-Rueckmeldung von Schreib-
                                ; fehlern (BAD SECTOR) darf die Puffergroesse nicht groesser
                                ; als die kleinste Blockgroesse fuer Disketten (1 K) sein,
                                ; da sonst die Pufferausgabe erst erfolgt, wenn mit anderen
                                ; Daten gearbeitet werden soll.
BIOS CP/A, Buerocomputer (A5120/30 u. ae.)	MACRO-80 V3.50	25-Oct-85	Page	1-8


                                ; Vorzugswert fuer "dbufsz" ist daher 10!
                                ; Mehr als die maximale Spurlaenge von ca. 6 1/4  K ergibt
                                ; keinen Gewinn, d.h. "dbufsz"<=13 .
                                ; "dbufsz"<12 fuehrt zu einer ungepufferten Arbeit bei Sektor-
                                ; laenge 128, da die Effektivitaet wegen des Sektorversatzes
                                ; bei Pufferung von Teilen einer Spur sinkt!
                                
                                ;	Vereinbarung fuer HardDisk
                                ;	~~~~~~~~~~~~~~~~~~~~~~~~~~
                                
                                ; Ueber einen Spezialadapter kann am 8-bit-Bus eine XT-kompatible Festplatte
                                ; genutzt werden.
                                ; Weitere Informationen befinden sich im Quelltext BIOxHD.MAC.
  0000                          hdsk	equ	0	;=1, wenn HardDisk zu unterstuetzen
                                 if hdsk
                                 endif
                                
                                ;	Vereinbarung der Tastatur
                                ;	~~~~~~~~~~~~~~~~~~~~~~~~~
                                
                                ; Waehrend des Kaltstarts wird auf Typ K7604/06/34/36/37 ge-
                                ; testet und die Treiberroutinen modifiziert.
                                ; 'Standardmaessig' ist diejenige Routine generiert, die den
                                ; laengsten Code benoetigt, d.h. es wird in jedem Fall modi-
                                ; fiziert.
                                
                                ; Portbelegungen:
                                ;----------------
                                
                                ; PIO-Tastatur (i.a. PIO auf ZE-Platte)
                                ;=============
  0006                          kbdpci	equ	06h	;Zeichen-Eingabe
  0001                          kbdpcs	equ	01h	;Eingabe-Status
  0003                          kbdp3o	equ	03h	;Lampen ausser Selector
  0005                          kbdp5o	equ	05h	;LED Selector
  0000                          kbdpin	equ	0	;=0: kein CTC-Kanal als Tastatur-Interrupt
                                
                                ; Bankschalter-Tastatur K7633 an AUP 062-08531
                                ; ===========================
  0042                          kbdbci	equ	42h	;;Zeichen-Eingabe
  0041                          kbdbcs	equ	41h	;;Status
  0043                          kbdb3o	equ	43h	;;Lampen
                                
                                ; SIO-Tastatur (i.a. zusammen mit IFSS-Drucker [unterer Stecker] auf K8025)
                                ;=============
  0058                          kbdsct	equ	58h	;CTC		Takt von K8025-CTC Kanal 0
  005C                          kbdsci	equ	5ch	;Zeichen E/A	2.  Stecker von unten
  005D                          kbdscs	equ	5dh	;Status
                                ; weitere SIO-Tastatur-Anschluesse (z.B. bei Digitalisier-Arbeitsplatz)
                                ; wenn nicht zu unterstuetzen, so "kbdsNx"-Werte gleich 0 (N = 2..5)
                                ; Abfrage in der Reihenfolge kbdscx, kbds2x, kbds3x, kbds4x,...
  0059                          kbds2t	equ	59h	;CTC		Takt von K8025-CTC Kanal 1 (Umbau)
  0052                          kbds2i	equ	52h	;Zeichen E/A	2. Stecker von oben
  0053                          kbds2s	equ	53h	;Status
                                
  005A                          kbds3t	equ	5ah	;CTC		Takt von K8025-CTC Kanal 2 (Umbau)
  0052                          kbds3i	equ	52h	;Zeichen E/A	2. Stecker von oben
  0053                          kbds3s	equ	53h	;Status
                                
  000C                          kbds4t	equ	0ch	;CTC		Takt von CPU (so K8025 ausgeliefert)
  0052                          kbds4i	equ	52h	;Zeichen E/A	2. Stecker von oben
  0053                          kbds4s	equ	53h	;Status
                                
  004A                          kbds5t	equ	4ah	;CTC
  004E                          kbds5i	equ	4eh	;Zeichen E/A
BIOS CP/A, Buerocomputer (A5120/30 u. ae.)	MACRO-80 V3.50	25-Oct-85	Page	1-9


  004F                          kbds5s	equ	4fh	;Status
                                
                                
                                ; Die folgenden Typcode-Zeichen werden in der Reihenfolge
                                ; der Tastaturnummern abgetestet (falls durch PROM-Aenderung
                                ; der gleiche Typcode wie fuer eine andere Tastatur geliefert
                                ; wird, kann man so bestimmte Tastaturen bevorzugen).
                                
  0000                          kbdotp	equ	0 ;Typ der Tast. die keinen Typcode liefert:
                                ;			=0 fuer K7606
                                ;			=1 fuer K7604
                                ;			=2 fuer DEG-Spezialtastatur am IIR
                                ;			=3 fuer K7633 an AUP 062-8531
  0010                          typc3s	equ	010h	;Sondertastatur IH Mittweida (modif. K7634)
  00A0                          typc34	equ	0a0h	;K7634 ausser K7634.54
                                
                                ; Typ der Tastatur, die Typcode 80h liefert:
                                ; von den equ-Zeilen genau eine ohne Semikolon davor!
                                ;typ80	equ	3454	;K7634.54 (UBT-Tastatur)
  0024                          typ80	equ	36	;K7636-Familie
                                
  0080                          typc37	equ	080h	;K7637
                                
                                
                                ; Der Tastaturpuffer befindet sich bei Arbeit mit Statuszeile
                                ; an deren Ende, so dass der Kopf staendig auf dem Bildschirm
                                ; sichtbar ist. Ohne Statuszeile ist er im BIOS-Arbeitsbereich.
                                ; (Bei Verlagerung an das Bildschirm-Puffer-Ende gibt es
                                ;  "Spratzer" auf Grund der Speicherorganisation der K7024-Karte)
                                
  0014                          kbdbl	equ	20; 47	;1..47, Zahl zu puffernder Zeichen
                                			;Weniger als 47 laesst auch bei Arbeit
                                			;mit Statuszeile am Speicherende Bytes
                                			;als BIOS-Patch-Bereich frei.
                                
                                ; Unabhaengig von der Tastaturerkennung wird die Arbeit mit
                                ; Tastaturstrings unterstuetzt. Es existiert sowohl eine Stan-
                                ; dardbelegung von Stringtasten als auch die Moeglichkeit der
                                ; nutzereignenen Definition bis auf Widerruf.
                                
                                 IF cpastz	;Puffer benoetigt keinen zusaetzlichen Platz
                                 ELSE
  2669                          biosln	aset	biosln+kbdbl
                                 ENDIF
                                
                                 IF1
                                 ENDIF
                                
  0000                          costu	equ	0; 20	;>=0
                                			;bei =0 werden Verw.routinen eingespart
                                			;bei >0 Mindestlnge fuer Nutzer-Strdef.
                                			;    Tab. liegt direkt vor Int.vektoren
                                			;    und ist evtl. groesser!
                                	IF	costu
                                	ENDIF
                                
                                ;	Vereinbarungen fuer Bildschirm
                                ;	~~~~~~~~~~~~~~~~~~~~~~~~~~~~~~
  2E69                          biosln	aset	biosln+crtbfl
                                
                                ;Es wird sowohl ein grosser (24*80, BAB2) als auch ein kleiner
                                ;(16*64, BAB1) Bildschirm unterstuetzt. Die Treibermodifizierung
                                ;geschieht beim Kaltstart ohne notwendige Neuuebersetzung.
                                
                                ; vorgegebene Bildschirm-Werte:
BIOS CP/A, Buerocomputer (A5120/30 u. ae.)	MACRO-80 V3.50	25-Oct-85	Page	1-10


                                
  F800                          bsanf2	equ	0f800h		;Anfang Bildschirmpuffer BAB2
  FC00                          bsanf1	equ	bsanf2+400h	;Anfang Bildschirmpuffer BAB1
  0018                          bszl2	equ	24		;Zeilenzahl
  0010                          bszl1	equ	16		;dito BAB1
  0050                          bssp2	equ	80		;Spaltenzahl
  0040                          bssp1	equ	64		;dito BAB1
  FF7F                          bsend2	equ	bsanf2+bszl2*bssp2-1	;Pufferende
  FFFF                          bsend1	equ	bsanf1+bszl1*bssp1-1	;dito BAB1
                                 IF cpastz
                                 ENDIF
                                
                                ; Waehrend des Kaltstarts wird Port 0ah, Bit 6 getestet (Wickel-
                                ; bruecke auf ZE-Karte) und hierueber BAB1 und BAB2/3 unterschieden.
                                
  0084                          bsinic	equ	84h	;Steuerzeichen fuer Bildschirmzustand
                                ;			 nach dem Loeschen des Bildschirms
                                ;			 bei Kaltstart
                                ;			 z.B. auf 86h fuer andere Helligkeit
                                
                                ; Es existiert inzwischen ein Reihe von Software, die die SCP1715-Steuer-
                                ; zeichenfolgen 1b 5e xx (Feldattribut) und 1b 5f xx (Spezialzeichen) nutzen,
                                ; die vom SCP1526 (Buerocomputer) nicht unterstuetzt werden.
                                ; Diese Steuerzeichenfolgen koennen wahlweise unter CP/A unterstuetzt werden,
                                ; wobei fuer den Buerocomputer technisch bedingt nur die Feldattribut-
                                ; Funktionen invers und hell zugelassen sind (Reaktion wie Steuerzeichen
                                ; 84,85,86,87; alle anderen Funktionen fuehren zur Steuerzeichen-Fehlermeldung
                                ; durch Ausgabe von '^' auf dem Bildschirm an dieser Selle).
                                ; Wird im folgenden "escpc"=0 gesetzt, so werden obige Steuerzeichenfolgen
                                ; als Kursorpositionierfolgen behandelt und fuehren zu entsprechend sinnlosen
                                ; Effekten auf dem Bildschirm. Ausser aus Speicherplatzgruenden sollte daher
                                ; "escpc"=1 sein.
  0001                          escpc	equ	1	;=1 fuer Unterstuetzung 1b 5e xx und 1b 5f xx
                                			;=0 fuer fehlende Unterstuetzung
                                 IF escpc
  2EA9                          biosln	aset	biosln+40h
                                 ENDIF
                                
                                ; Fuer eine effektivere Arbeit von TURBO-Pascal koennen wahlweise die
                                ; Nicht-SCP-Steuerzeichen 17h (Insert Line) und 19h (Delete Line)
                                ; vom Bildschirmtreiber unterstuetzt werden, wodurch der Bildschirm-
                                ; neuaufbau erheblich beschleunigt wird (keine Neuausgabe des gesamten
                                ; Bildschirmrestes). Hat nur Sinn, wenn TURBO-Pascal auch geaendert
                                ; wird, d.h. diese Steuerzeichen nutzt!
                                
  0001                          inslin	equ	1	;=1, wenn InsLine und DelLine zu unterstuetzen
                                			;=0 sonst
                                 IF inslin
  2F09                          biosln	aset	biosln+60h
                                 ENDIF
                                
  0000                          adm3a	equ	0	;=1, wenn auch Unterst. einiger ADM3A-St.zeich.
                                ;			 =0, wenn nur SCP-Steuerz.
                                	IF	adm3a
                                	ENDIF
                                
                                
                                ; Umlautumcodierung (fuer deutschen Zeichensatz):
                                ; Bei BAB2 und BAB1 ist unter Verwendung eines speziellen
                                ; Zeichengenerators die Darstellung von Umlauten moeglich.
                                ; Dabei werden (nach Wunsch, umschaltbar mit CI/Stop U)
                                ; anstelle der ASCII-Zeichen spezielle Codierungen (10h..1fh)
                                ; auf den BS ausgegeben. Der Zeichensatz entspricht dem
                                ; Umfang des Typenrades des 1152 mit Umlauten.
                                ; Fuer BAB3 fuehrt die Umcodierung zur Interpretation als
BIOS CP/A, Buerocomputer (A5120/30 u. ae.)	MACRO-80 V3.50	25-Oct-85	Page	1-11


                                ; Steuerzeichen normal/invers/intensiv ==> nicht benutzen!
  0001                          umlaut	equ	1; 0	;=1 mit Umcodierungsmoeglichkeit
                                			;=0 ohne	-"-
                                 IF umlaut
                                ; Bei umlaut<>0 muss genau eines der folgenden equ's =1 sein,
                                ; wodurch der Zeichengenratortyp bestimmt wird.
                                ; Die genaue Belegung ist im Text 'BIOxCRT.MAC' zu finden.
  0001                          zsuml	equ	1; 0	;Belegegung durch Koll. Geiler, IH Mittweida
  0000                          zsibm	equ	0; 1	;Belegung fuer ersatzweisen IBM-Zeichensatz
  2F69                          biosln	aset	biosln+60h
                                 ENDIF
                                
                                
                                ;	Interruptvektor
                                ;	===============
                                
  F700                          intvec	equ	0f700h	;Beginn des Interruptvektors (immer 100h-er Grenze)
                                
                                ; Vom BIOS benutzte Interruptworte:
  00E0                          intvsy	equ	0e0h		;immer benoetigt intvsy..intvsy+1fh
                                 IF iobuc1
  00D0                          intvuc	equ	intvsy-10h	;SIO-Bedienung fuer UC1:-Treiber
  00D0                          intvb	equ	intvuc		;kleinster benoetiger Platz durch BIOS
                                 ENDIF
                                
                                ; Belegung der Interruptsaeule durch das BIOS:
                                ;============================================
                                
                                ; Kassetten werden ausserhalb des BIOS bedient und benoetigen
                                ; Interruptsaeulenplatz von 0c0h..0cfh!!
                                
                                 if iobuc1
                                ;	SIO fuer UC1:-Treiber im Interrupt
                                ; Kanal B
  00D0                          ivsio0	equ	intvuc		;Sendepuffer leer
  00D2                          ivsio1	equ	ivsio0+2	;Statuswechsel
  00D4                          ivsio2	equ	ivsio1+2	;Empf-Zeichen da
  00D6                          ivsio3	equ	ivsio2+2	;Empf-Ueberlauf
                                ; Kanal A
  00D8                          ivsio4	equ	ivsio3+2	;Sendepuffer leer
  00DA                          ivsio5	equ	ivsio4+2	;Statuswechsel
  00DC                          ivsio6	equ	ivsio5+2	;Empf-Zeichen da
  00DE                          ivsio7	equ	ivsio6+2	;Empf-Ueberlauf
                                 endif
                                
  00E0                          ivpar	equ	intvsy+00h	;Paritaetsfehler EM256-RAM
  00E2                          ivpiod	equ	intvsy+02h	;Status-Interrupt PIO-Drucker
                                
                                ;*** intvsy+04h frei
                                
  00E6                          ivprot	equ	intvsy+06h	;Speicherschutz bei A5120/30
                                
                                ;*** die folgenden beiden Adressen werden vom FORMAT-Programm
                                ;*** vorausgesetzt, d.h. ihre Lage ist quasi fest !!
  00E8                          ivdsk1	equ	intvsy+08h	;Disk Index-Interrupt
  00EA                          ivdsk2	equ	intvsy+0ah	;Disk Marken-/Fault-Interrupt
                                
                                ;*** intvsy+0ch, +0eh frei
                                
                                ; LS-Leser und Stanzer bei A5120/30
                                ; *** Die folgenden Adressen werden von PTPUNCH/PTREAD
                                ; *** vorausgesetzt, d.h. ihre Lage ist quasi fest!!
                                ; *** bei nicht vorhandener Lochstreifenperipherie intvsy+10h..+16h frei
  00F0                          ivpun1	equ	intvsy+10h	;LS-Stanzer
  00F2                          ivrdr1	equ	intvsy+12h	;LS-Leser
BIOS CP/A, Buerocomputer (A5120/30 u. ae.)	MACRO-80 V3.50	25-Oct-85	Page	1-12


  00F4                          ivrdr2	equ	intvsy+14h
  00F6                          ivpun2	equ	intvsy+16h	;LS-Stanzer
                                
  00F8                          ivctc0	equ	intvsy+18h	;CTC Kanal 0
  00FA                          ivctc1	equ	ivctc0+2
  00FC                          ivctc2	equ	ivctc1+2
  00FE                          ivctc3	equ	ivctc2+2
                                
                                
                                ;	Unterstuetzung weiterer Peripherie
                                ;	----------------------------------
                                
                                ; Es gibt in CP/A grundsaetzlich folgende Moeglichkeiten fuer die
                                ; Unterstuetzung einer SIO-Bedienung (i.a. fuer Kopplungen):
                                ; a) Unterstuetzung als UC1:-Geraet
                                ;   (siehe Vereinbarungen fuer serielle Geraete).
                                ;   In diesem Fall erfolgt die Bedienung voll ueber das BIOS
                                ;   (im Interruptbetrieb, mit speziellem Empf.puffer im BIOS)
                                ;   Fehler werden nur als BIOS-Fehler gemeldet, das Anwenderprogramm
                                ;   erfaehrt davon nichts ueber die BIOS-Schnittstelle.
                                ; b) im Anwenderprogramm, keine Unterstuetzung im BIOS.
                                ; Im Fall b) - oder wenn es sich um andersartige Peripherie handelt -
                                ; bietet CP/A durch Veraenderung von "intvl" zusaetzlichen Platz in
                                ; der Interruptvektor-Tabelle an, so dass eine Umspeicherung der
                                ; BIOS-Interruptvektoren vermieden werden kann.
                                
  00D0                          intvl	aset	intvb		;kleinster low-Interruptvektor
                                				;Kann 000h..0d0h sein
                                				;("intvb"..ff wird vom BIOS benoetigt)
  2F99                          biosln	aset	biosln+(100h-intvl)
                                
                                ;------------------------------------------------------
                                ;	absolute Hauptspeicherplaetze
                                ;------------------------------------------------------
                                ;		      Byteanzahl
  0000                          reboot	equ	0	;(3)	;Warmstart-Sprung
  0003                          iobyte	equ	3	;(1)	;I/O-Byte
  0004                          defaul	equ	4	;(1)	;DEFAULT-Disk
  0005                          bdosjp	equ	5	;(3)	;BDOS-Sprung
                                
                                 IF oss		;OSS-Hilfsadressen <4000h !
                                 ENDIF
                                
                                ; In CP/M zugelassener Scratch-Bereich fuer BIOS 40h..4fh
  0040                          lampbf	equ	40h	;(1)	;Puffer Tastaturlampen
                                				;Bedeutung (wenn Lampe vorhanden)
  0000                          lmpsl0	equ	0	;	Selektor 0
  0001                          lmpsl1	equ	1	;	Selektor 1
  0002                          lmpsl2	equ	2	;	Selektor 2
  0003                          lmpsl3	equ	3	;	Selektor 3
  0004                          lmpb2b	equ	4	;	2 Bahn Drucker beide Bahnen parallel
  0005                          lmpb2r	equ	5	;	2 Bahn Drucker rechte Bahn
  0006                          lmperr	equ	6	;	Fehler Lampe
  0007                          lmphcp	equ	7	;	Hardcopy (INSM) Lampe
  0041                          tim5cn	equ	41h	;(2)	;25-ms-Zaehler aufwaerts
  0043                          tim1cn	equ	43h	;(2)	;1-sec-Zaehler abwaerts
  0045                          tim1rt	equ	45h	;(2)	;Adr. der 1-sec Interr.routine
  004A                          kritbg	equ	4ah	;(2)	;Adr. der Nutzerroutine fuer Beginn zeit-
                                			;	;kritischer BIOS-Abschnitte (z.B. Floppy)
  004C                          kriten	equ	4ch	;(2)	;Adr. Enderoutine fuer kritbg
  004E                          cpmext	equ	4eh	;(2)	;Adr. Sprungvektor CP/M-Erw.
                                
                                 IF uhrvar
  0050                          bcduhr	equ	50h	;(3)	;HH:MM:SS (40h ist Adr. in SCP)
                                ;		53h	;(3)	;DD:MM:YY
BIOS CP/A, Buerocomputer (A5120/30 u. ae.)	MACRO-80 V3.50	25-Oct-85	Page	1-13


                                 ENDIF
                                
  0100                          tpa	equ	100h		;Programmladepunkt
                                
                                
                                ;************************Ende Varianten-Vereinbarungen*****************
                                
                                 IF1
                                 ENDIF
                                	page	66
BIOS CP/A, Buerocomputer (A5120/30 u. ae.)	MACRO-80 V3.50	25-Oct-85	Page	1-14


                                
                                
                                ; Die folgenden EQU's dienen dazu, um bereits zum Zeitpunkt der
                                ; Uebersetzung eine Verschiebung des Ladepunktes durch ein zu
                                ; lang gewordenes BIOS zu erkennen.
                                
  3000                          biosl0	aset	(biosln+0ffh) and 0ff00h;auf 256-Grenze runden
  D000                          biosad	aset	rambyt-biosl0	;BIOS-Ladeadresse
  C205                          tpaend	equ	biosad-bdosln+5 ;Laenge BDOS abziehen
                                
  F700                          intvec	equ	rambyt-crtbfl-100h	;Interruptvektoradr.
                                ;				 liegt immer 100h vor BS-Puffer
                                ;				 bei 64k RAM auf F700H
  F7D0                          intvr	aset	intvec+intvl	;nur hinterer teil genutzt
                                
  C200                          BDOS	equ	biosad-bdosln	;vermeiden Externals, da linkmt
  BA00                          CCP	equ	BDOS-ccpln	;nicht ganz sauber ist
                                
                                
                                ;------------------------------------------------------------
                                ;	BEGINN BIOS-CODE
                                ;------------------------------------------------------------
                                
                                	.PHASE	biosad
                                 IF1
                                 ENDIF
                                
  D000    C3 E7B7               BIOS00: JP	kaltst
  D003    C3 E6F6               BIOS03: JP	warmst
  D006    C3 E56C               BIOS06: JP	const	;CON:	Status; oA =FF bereit, =00 sonst
  D009    C3 E578               BIOS09: JP	conin	;CON:	Zeichen oA (solange Warten)
  D00C                          conol:	;conout mit evtl. hardcopy
  D00C    C3 E584               BIOS0C: JP	conout	;CON:	Zeichen iC
  D00F    C3 E5C0               BIOS0F: jp	list	;LST:	Zeichen iC
  D012    C3 E5A8               BIOS12: jp	punch	;PUN:	Zeichen iC
  D015    C3 E59C               BIOS15: jp	reader	;RDR:	Zeichen oA (solange Warten)
  D018    C3 DB65               BIOS18: JP	home		;./. (trk:=0)
  D01B    C3 D978               BIOS1B: JP	seldsk		;iC (0=A,1=B,..); oHL ^DPH
  D01E    C3 DB74               BIOS1E: JP	settrk		;iBC
  D021    C3 DB79               BIOS21: JP	setsec		;iBC
  D024    C3 DB7E               BIOS24: JP	setdma		;iBC
  D027    C3 DBFF               BIOS27: JP	read		;oA Resultat; A=0 ok, A=1 sonst
  D02A    C3 DB87               BIOS2A: JP	write		;oA Resultat; A=0 ok, A=1 sonst
  D02D    C3 E5B4               BIOS2D: jp	listst	;LST:	Status; oA =FF bereit, =00 sonst
  D030    C3 DB83               BIOS30: JP	sectran		;iBC log. Sektnr (ab 0!!),
                                				;iDE ^Sektor-Translate-Tabelle
                                				;oHL Sektornr. fuer setsec
                                
                                ; Die folgenden Bytes liegen an der gleichen Stelle im BIOS
                                ; wie bei SCP fuer Buerocomputer und dienen zur sicheren Er-
                                ; kennung von SCP-spezifischen Programmen, da diese an dieser
                                ; Stelle testen.
                                
  D033    43 50                 BIOS33: db	'CP'		;SCP-Kennzeichen ist 'BW '
  D035    41                    	db	'A'		;'CPA'
  D036                          BIOS36:
  D036    42                    	db	'B'		;Hardware Buerocomputer
  D037    36                    	db	'6'		;Schnittstellen-Version
                                
                                ; Die folgenden Bytes dienen der direkten Bildschirmbedienung ohne
                                ; BIOS-Benutzung fuer extreme Zeitanforderungen
BIOS CP/A, Buerocomputer (A5120/30 u. ae.)	MACRO-80 V3.50	25-Oct-85	Page	1-15


  D038                          BIOS38:
  D038    FC00                  crtcps: dw	bsanf1		;Kursorposition im Bildschirmpuffer
  D03A    FF                    crtccn: db	0ffh		;Zeittaktzaehler fuer Kursorpflege
                                ; Die folgenden Bytes dienen der Tastenumdefinition von aussen
  D03B                          BIOS3B:
  D03B    D381                  kbdsst: dw	kbdsts		;Standard-Stringtabelle (bei jedem Warmstart)
                                			;Aufbau: virt. Tastencode,Laenge,String,...,0ffh
  D03D                          BIOS3D:
                                ; Die folgenden beiden Bytes dienen der Einstellung spezieller Zust. von aussen
                                ;*************************************************************
                                ;	Synchronisierungsflags
                                ;*************************************************************
                                
  D03D    00                    synflg: db	0		;Synchr.-Flags
  0000                          ctrlst	equ	0		;CTRL-Status-Bit (=0 fest!)
                                 IF monitor
                                 ENDIF
                                 IF umlaut
  0002                          umlflg	equ	2		;Umlaute umkodieren
                                 ENDIF
                                 IF stpvar
                                  IF chdvar
  0003                          synlrq	equ	3		;Anforderung LST:-Kanal zu synchron.
                                  ENDIF
                                 ENDIF
  0004                          stoprq	equ	4		;Stop-Anforderung
                                 IF monitor
                                 ENDIF
  0006                          stzaus	equ	6		;keine Pflege der Statuszeile
                                 IF stpvar
  0007                          phyact	equ	7		;Tasten physisch in Puffer
                                 ENDIF
                                
                                ;!!synsem muss direkt nach synflg liegen!!
  D03E    01                    synsem: db	1		;bei >0 keine asynchr. Arbeit
                                
  D03F                          BIOS3F:
                                ;=====================Ende des festen BIOS-Vektors=========================
                                
                                 IF1 ;dphaX wird spaeter bei existierendem Geraet X <>0 gesetzt
                                 ENDIF
                                
                                ; Parameterheader fuer Disketten
                                ;-------------------------------
                                
                                	IRP	di,<A,B,C,D>
                                 IF disk&di
                                dph&di: DW	0,0,0,0,dirbuf
                                	DW	dpb&di,csv&di,alv&di
                                dpha&di aset	dph&di
                                 ENDIF
                                	ENDM
  D03F    0000 0000       +     dph&A: DW	0,0,0,0,dirbuf
  D043    0000 0000       +     
  D047    F00C            +     
  D049    D06F F0BE       +     	DW	dpb&A,csv&A,alv&A
  D04D    F08C            +     
  D04F    0000 0000       +     dph&B: DW	0,0,0,0,dirbuf
  D053    0000 0000       +     
  D057    F00C            +     
  D059    D0A2 F130       +     	DW	dpb&B,csv&B,alv&B
  D05D    F0FE            +     
BIOS CP/A, Buerocomputer (A5120/30 u. ae.)	MACRO-80 V3.50	25-Oct-85	Page	1-16


  D05F    0000 0000       +     dph&C: DW	0,0,0,0,dirbuf
  D063    0000 0000       +     
  D067    F00C            +     
  D069    D0D5 F1A2       +     	DW	dpb&C,csv&C,alv&C
  D06D    F170            +     
                                
                                ; Bemerkungen zur Arbeit ohne automatische Formaterkennung:
                                ;---------------------------------------------------------
                                ; Die folgende DPB-Generierung erzeugt entspr. 'dbufsz' das
                                ; jeweilige Standardformat von CP/A, so dass dieses bei Arbeit
                                ; ohne automatische Formaterkennung eingestellt ist.
                                ; Nutzerspezifische Modifizierungen koennen in den Standard-DPB's
                                ; vorgenommen werden. Kommt dabei das Format der Kaltstart-
                                ; Diskette nicht mehr vor, so muss diese nach dem Kaltstart
                                ; gegen die Nutzerdiskette gewechselt werden. Dadurch ist z.B.
                                ; fuer extreme TPA-Anforderungen nur 128er Diskettenformat
                                ; moeglich (kein 1K Diskettenpuffer!), obwohl der Kaltstart von
                                ; einer Diskette mit 1K Sektoren erfolgte.
                                
                         C      	include BIOSDPBM
                         C      ; Struktur DPB (einschl. Erweiterung gegenueber Standard-DPB)
                         C      ; Standard-Teil:
  0000                   C      dpbspt	equ	0	;(dw)	128-Sektoren pro Spur
  0002                   C      dpbbls	equ	2	;(db)	blockshift (3=1K, 4=2K)
  0003                   C      dpbblm	equ	3	;(db)	blockmask
  0004                   C      dpbexm	equ	4	;(db)	extentmask
  0005                   C      dpbsiz	equ	5	;(dw)	Kapazitaet -1 in Bloecken
  0007                   C      dpbdir	equ	7	;(dw)	Anzahl -1 DIR-Eintraege
  0009                   C      dpbalc	equ	9	;(dw)	Allocation-Bits fuer DIR
  000B                   C      dpbchk	equ	11	;(dw)	Check-Size fuer 'R/O'-Test
  000D                   C      dpbofs	equ	13	;(dw)	Zahl der Systemspuren
                         C      ; Ab Byte 15 folgt Nicht-Standard fuer DPB
                         C      
                         C      ; DPB-Steuerinformationen
  000F                   C      dpbflg	equ	15	;(db)	Flags, i.a. alle =0
  0003                   C      dpbfsm	equ	3	;	0..3 Zahl der abweichend vom
                         C      			;	restlichen Spurformat mit 
                         C      			;	26*128 formatierten Spuren
  0002                   C      dpbffm	equ	2	;	=1, wenn FM-Aufzeichung zu erzwingen
                         C      			;	    (d.h. FM-Disk in MFM-Laufwerk)
  0003                   C      dpbfsv	equ	3	;	=1, wenn Double sided zu betreiben,
                         C      			;	    indem von aussen nach innen
                         C      			;	    und auch Rueckseite von aussen
                         C      			;	    nach innen
                         C      			;	=0, wenn Double sided zu betreiben,
                         C      			;	    indem zunaechst von aussen nach
                         C      			;	    innen und Rueckseite von innen
                         C      			;	    nach aussen
                         C      			;	immer mit dpbf86+dpbfds zusammen setzen!
  0004                   C      dpbf86	equ	4	;	=1, dpbfsv benutzen
                         C      			;	=0, wenn Double sided zu betreiben,
                         C      			;	    indem ungerade logische Spuren
                         C      			;	    auf der Rueckseite liegen
                         C      			;	immer mit dpbfds zusammen setzen!
  0005                   C      dpbfds	equ	5	;	=1, wenn Double sided zu betreiben
  0006                   C      dpbfrm	equ	6	;	=1, wenn keine autom. Format-
                         C      			;	    erkennung in Seldsk
  0007                   C      dpbfnd	equ	7	;	=1, wenn abweichende DPB-Struktur
                         C      			;	    (keine Disketten)
                         C      
  0010                   C      dpbslc	equ	16	;(db)	Sektorlaengencode
  0011                   C      dpbbfm	equ	17	;(db)	Puffermaske, d.h. Anzahl der 128er
BIOS CP/A, Buerocomputer (A5120/30 u. ae.)	MACRO-80 V3.50	25-Oct-85	Page	1-17


                         C      			;	Sektoren im Puffer -1
                         C      			;	muss < 2**(dbufsz-7) sein,
                         C      			;	muss < 2**dpbslc sein, wenn phys.
                         C      			;	Sektornummern in dpbstr nicht monoton
  0012                   C      dpbstp	equ	18	;(db)	Stepimpulse pro Spurpositionierung
                         C      			;	1 oder 2
  0013                   C      dpbsn0	equ	19	;(db)	Verschiebung der Sektor-Numm. auf Rueckseite
  0014                   C      dpbtrk	equ	20	;(db)	log. Anzahl Spuren
                         C      ; geraeteabh.Parameter:
  0015                   C      dpbdnr	equ	21	;(db)	physische Laufwerksnummer
  0016                   C      dpbptr	equ	22	;(db)	Gesamtzahl physische Spuren (40/77/80)
  0017                   C      dpbsti	equ	23	;(db)	Schrittzeit in 0.1 ms
  0018                   C      dpbtyp	equ	24	;(db)	Laufwerkstyp:
  0000                   C      dpbtds	equ	0	; =0 bei SS, =1 bei DS
  0003                   C      dpbtdd	equ	3	; =0 bei SD (FM), =1 bei DD (MFM)
  0004                   C      dpbt5z	equ	4	; =0 bei 8", =1 bei 5"
  0005                   C      dpbt80	equ	5	; =0 bei nicht 80-Spur, =1 bei 80-Spur
  0006                   C      dpbtwv	equ	6	; =0 ohne, =1 mit Verify nach Schreiben
  0007                   C      dpbt52	equ	7	; =0 bei max 26 ,=1 bei max 52 Sekt./Spur (8" MFM)
                         C      ; physische Sektortranslate-Tabelle (sollte am Ende liegen,
                         C      ; um bei festem Format mit weniger als 26 phys. Sektoren den
                         C      ; DPB entspr. verkuerzen zu koennen)
  0019                   C      dpbstr	equ	25	;(ds26)	entspr. phys. Sektoren pro Seite
                         C      
  0033                   C      dpblng	equ	dpbstr+26	;(max.) Laenge eines DPB
                         C      		;***bei 8" MFM:  52 Sektoren, d.h. dpblng um 26 groesser***
                                
                                ; Im folgenden kein IRP im Assembler moeglich, da INCLUDE
                                
                                 IF diska ne 0
  2D3C                          diskdi	aset	diska
  0000                          @din	aset	0
  D06F                   C      DPBA:	include BIOSDPB
                         C      ;;BIOSDPB, Version 18.05.89
                         C       if dbufsz le 7
                         C       else
                         C       if dbufsz lt 10
                         C       else ;;dbufsz ge 10
                         C        if	((diskdi mod 10000)/1000) and 00000001b		;;DS
                         C         if	(diskdi mod 100) eq 40				;;40 Tr.
                         C         endif
                         C         if	(diskdi mod 100) eq 80				;;80 Tr.
  D06F    0028           C      	DW	40	;;(0)	;SECTORS/TRACK	(LOGIN)
  D071    04             C      	DB	4	;;(2)	;BLOCK SHIFT	(LOGIN)
  D072    0F             C      	db	0fh	;;(3)	;BLOCK MASK	(LOGIN)
  D073    00             C      	DB	0	;;(4)	;EXTENT MASK	(LOGIN)
                         C       if @fsys
                         C       else
  D074    018F           C      	DW	800/2-1 ;;(5)	;Blockanzahl- 1 (LOGIN)
  D076    00BF           C      	DW	192-1	;;(7)	;DIR MAX	(LOGIN)
  D078    E0 00          C      	DB	0e0H,0	;;(9)	;ALLOC fuer dir.(LOGIN)
  D07A    0030           C      	DW	48	;;(11)	;CHECK SIZE	(LOGIN)
  D07C    0000           C      	DW	0	;;(13)	;OFFSET		(LOGIN)
                         C       endif
                         C         endif
                         C        endif
                         C       endif
                         C       endif
                         C      
                         C      ;; Nicht-Standard-DPB-Teil
  0000                   C      @dpbhl	aset	0
                         C       if	((diskdi mod 10000)/1000) and 00000001b
BIOS CP/A, Buerocomputer (A5120/30 u. ae.)	MACRO-80 V3.50	25-Oct-85	Page	1-18


  0020                   C      @dpbhl	aset	@dpbhl+(1 shl dpbfds)		;;DS betreiben
                         C       endif
                         C       if @fact eq 0 ;;keine autom. Formaterkennung scharf, Format annageln
                         C       endif
  D07E    20             C      	db	@dpbhl
                         C       if dbufsz le 7
                         C       endif
                         C       if (dbufsz lt 10) and (dbufsz gt 7)
                         C       endif
                         C       if dbufsz ge 10
  D07F    03             C      	db	3		;;Sektorlaengencode
  D080    07             C      	db	7		;;Puffermaske 8*128
                         C       endif
  D081    01             C      	db	1		;;Zahl der Stepimpulse
  D082    00             C      	db	0		;;keine Weiter-Numm. auf Rueckseite
  D083    50             C      	db	diskdi mod 100	;;benutztye Zahl phys. Spuren
  D084    00             C      	db	@din		;;phys. LW-Nr.
  D085    50             C      	db	diskdi mod 100	;;maximale Zahl phys. Spuren
                         C       if	(diskdi mod 1000)/100 eq 5	;;5" 
                         C        if	(diskdi mod 100) gt 40
                         C         if ((diskdi mod 10000)/1000) and 00000001b
  D086    28             C      	db	4*10		;;Schrittzeit fuer 80 Tr. DS LW
                         C         endif
                         C        endif
                         C       endif
                         C      
  0000                   C      @dpbhl	aset	0		;;vorbereiten Laufwerkstyp-Flags
                         C      
                         C       if	(diskdi ge 10000)
  0008                   C      @dpbhl	aset	@dpbhl xor (1 shl dpbtdd)	;;double density
                         C       endif
                         C       if	(diskdi mod 1000)/100 eq 5
  0018                   C      @dpbhl	aset	@dpbhl xor (1 shl dpbt5z)	;;5" 
                         C       endif
                         C       if (diskdi mod 100) eq 80
  0038                   C      @dpbhl	aset	@dpbhl xor (1 shl dpbt80)	;;80-Spur-Laufwerk
                         C       endif
                         C       if	((diskdi mod 10000)/1000) and 00000001b
  0039                   C      @dpbhl	aset	@dpbhl xor (1 shl dpbtds)	;;double sided
                         C       endif
                         C       if ((diskdi mod 10000)/1000) and 00000010b
                         C       endif
                         C       if	(diskdi mod 1000)/100 eq 8	;;8" 
                         C       endif
  D087    39             C      	db	@dpbhl	;;vom Laufwerkstyp abhaengige Flags
                         C      
                         C       if	(diskdi mod 1000)/100 eq 5 ;;5" 
                         C        if dbufsz le 7
                         C        else
                         C      ;; log. Sektortranslate-Tabelle fuer andere Formate
  D088    01 02 03 04    C      	db	1,2,3,4,5,6,7,8,9,10,11,12,13,14
  D08C    05 06 07 08    C      
  D090    09 0A 0B 0C    C      
  D094    0D 0E          C      
  D096    0F 10 11 12    C      	db	15,16,17,18,19,20,21,22,23,24,25,26
  D09A    13 14 15 16    C      
  D09E    17 18 19 1A    C      
                         C        endif
                         C       endif
                         C       if	(diskdi mod 1000)/100 eq 8	;;8" 
                         C       endif	;;8" 
                                 ENDIF
BIOS CP/A, Buerocomputer (A5120/30 u. ae.)	MACRO-80 V3.50	25-Oct-85	Page	1-19


                                 IF diskb ne 0
  2D3C                          diskdi	aset	diskb
  0001                          @din	aset	1
  D0A2                   C      DPBB:	include BIOSDPB
                         C      ;;BIOSDPB, Version 18.05.89
                         C       if dbufsz le 7
                         C       else
                         C       if dbufsz lt 10
                         C       else ;;dbufsz ge 10
                         C        if	((diskdi mod 10000)/1000) and 00000001b		;;DS
                         C         if	(diskdi mod 100) eq 40				;;40 Tr.
                         C         endif
                         C         if	(diskdi mod 100) eq 80				;;80 Tr.
  D0A2    0028           C      	DW	40	;;(0)	;SECTORS/TRACK	(LOGIN)
  D0A4    04             C      	DB	4	;;(2)	;BLOCK SHIFT	(LOGIN)
  D0A5    0F             C      	db	0fh	;;(3)	;BLOCK MASK	(LOGIN)
  D0A6    00             C      	DB	0	;;(4)	;EXTENT MASK	(LOGIN)
                         C       if @fsys
                         C       else
  D0A7    018F           C      	DW	800/2-1 ;;(5)	;Blockanzahl- 1 (LOGIN)
  D0A9    00BF           C      	DW	192-1	;;(7)	;DIR MAX	(LOGIN)
  D0AB    E0 00          C      	DB	0e0H,0	;;(9)	;ALLOC fuer dir.(LOGIN)
  D0AD    0030           C      	DW	48	;;(11)	;CHECK SIZE	(LOGIN)
  D0AF    0000           C      	DW	0	;;(13)	;OFFSET		(LOGIN)
                         C       endif
                         C         endif
                         C        endif
                         C       endif
                         C       endif
                         C      
                         C      ;; Nicht-Standard-DPB-Teil
  0000                   C      @dpbhl	aset	0
                         C       if	((diskdi mod 10000)/1000) and 00000001b
  0020                   C      @dpbhl	aset	@dpbhl+(1 shl dpbfds)		;;DS betreiben
                         C       endif
                         C       if @fact eq 0 ;;keine autom. Formaterkennung scharf, Format annageln
                         C       endif
  D0B1    20             C      	db	@dpbhl
                         C       if dbufsz le 7
                         C       endif
                         C       if (dbufsz lt 10) and (dbufsz gt 7)
                         C       endif
                         C       if dbufsz ge 10
  D0B2    03             C      	db	3		;;Sektorlaengencode
  D0B3    07             C      	db	7		;;Puffermaske 8*128
                         C       endif
  D0B4    01             C      	db	1		;;Zahl der Stepimpulse
  D0B5    00             C      	db	0		;;keine Weiter-Numm. auf Rueckseite
  D0B6    50             C      	db	diskdi mod 100	;;benutztye Zahl phys. Spuren
  D0B7    01             C      	db	@din		;;phys. LW-Nr.
  D0B8    50             C      	db	diskdi mod 100	;;maximale Zahl phys. Spuren
                         C       if	(diskdi mod 1000)/100 eq 5	;;5" 
                         C        if	(diskdi mod 100) gt 40
                         C         if ((diskdi mod 10000)/1000) and 00000001b
  D0B9    28             C      	db	4*10		;;Schrittzeit fuer 80 Tr. DS LW
                         C         endif
                         C        endif
                         C       endif
                         C      
  0000                   C      @dpbhl	aset	0		;;vorbereiten Laufwerkstyp-Flags
                         C      
                         C       if	(diskdi ge 10000)
BIOS CP/A, Buerocomputer (A5120/30 u. ae.)	MACRO-80 V3.50	25-Oct-85	Page	1-20


  0008                   C      @dpbhl	aset	@dpbhl xor (1 shl dpbtdd)	;;double density
                         C       endif
                         C       if	(diskdi mod 1000)/100 eq 5
  0018                   C      @dpbhl	aset	@dpbhl xor (1 shl dpbt5z)	;;5" 
                         C       endif
                         C       if (diskdi mod 100) eq 80
  0038                   C      @dpbhl	aset	@dpbhl xor (1 shl dpbt80)	;;80-Spur-Laufwerk
                         C       endif
                         C       if	((diskdi mod 10000)/1000) and 00000001b
  0039                   C      @dpbhl	aset	@dpbhl xor (1 shl dpbtds)	;;double sided
                         C       endif
                         C       if ((diskdi mod 10000)/1000) and 00000010b
                         C       endif
                         C       if	(diskdi mod 1000)/100 eq 8	;;8" 
                         C       endif
  D0BA    39             C      	db	@dpbhl	;;vom Laufwerkstyp abhaengige Flags
                         C      
                         C       if	(diskdi mod 1000)/100 eq 5 ;;5" 
                         C        if dbufsz le 7
                         C        else
                         C      ;; log. Sektortranslate-Tabelle fuer andere Formate
  D0BB    01 02 03 04    C      	db	1,2,3,4,5,6,7,8,9,10,11,12,13,14
  D0BF    05 06 07 08    C      
  D0C3    09 0A 0B 0C    C      
  D0C7    0D 0E          C      
  D0C9    0F 10 11 12    C      	db	15,16,17,18,19,20,21,22,23,24,25,26
  D0CD    13 14 15 16    C      
  D0D1    17 18 19 1A    C      
                         C        endif
                         C       endif
                         C       if	(diskdi mod 1000)/100 eq 8	;;8" 
                         C       endif	;;8" 
                                 ENDIF
                                 IF diskc ne 0
  2D3C                          diskdi	aset	diskc
  0002                          @din	aset	2
  D0D5                   C      DPBC:	include BIOSDPB
                         C      ;;BIOSDPB, Version 18.05.89
                         C       if dbufsz le 7
                         C       else
                         C       if dbufsz lt 10
                         C       else ;;dbufsz ge 10
                         C        if	((diskdi mod 10000)/1000) and 00000001b		;;DS
                         C         if	(diskdi mod 100) eq 40				;;40 Tr.
                         C         endif
                         C         if	(diskdi mod 100) eq 80				;;80 Tr.
  D0D5    0028           C      	DW	40	;;(0)	;SECTORS/TRACK	(LOGIN)
  D0D7    04             C      	DB	4	;;(2)	;BLOCK SHIFT	(LOGIN)
  D0D8    0F             C      	db	0fh	;;(3)	;BLOCK MASK	(LOGIN)
  D0D9    00             C      	DB	0	;;(4)	;EXTENT MASK	(LOGIN)
                         C       if @fsys
                         C       else
  D0DA    018F           C      	DW	800/2-1 ;;(5)	;Blockanzahl- 1 (LOGIN)
  D0DC    00BF           C      	DW	192-1	;;(7)	;DIR MAX	(LOGIN)
  D0DE    E0 00          C      	DB	0e0H,0	;;(9)	;ALLOC fuer dir.(LOGIN)
  D0E0    0030           C      	DW	48	;;(11)	;CHECK SIZE	(LOGIN)
  D0E2    0000           C      	DW	0	;;(13)	;OFFSET		(LOGIN)
                         C       endif
                         C         endif
                         C        endif
                         C       endif
                         C       endif
BIOS CP/A, Buerocomputer (A5120/30 u. ae.)	MACRO-80 V3.50	25-Oct-85	Page	1-21


                         C      
                         C      ;; Nicht-Standard-DPB-Teil
  0000                   C      @dpbhl	aset	0
                         C       if	((diskdi mod 10000)/1000) and 00000001b
  0020                   C      @dpbhl	aset	@dpbhl+(1 shl dpbfds)		;;DS betreiben
                         C       endif
                         C       if @fact eq 0 ;;keine autom. Formaterkennung scharf, Format annageln
                         C       endif
  D0E4    20             C      	db	@dpbhl
                         C       if dbufsz le 7
                         C       endif
                         C       if (dbufsz lt 10) and (dbufsz gt 7)
                         C       endif
                         C       if dbufsz ge 10
  D0E5    03             C      	db	3		;;Sektorlaengencode
  D0E6    07             C      	db	7		;;Puffermaske 8*128
                         C       endif
  D0E7    01             C      	db	1		;;Zahl der Stepimpulse
  D0E8    00             C      	db	0		;;keine Weiter-Numm. auf Rueckseite
  D0E9    50             C      	db	diskdi mod 100	;;benutztye Zahl phys. Spuren
  D0EA    02             C      	db	@din		;;phys. LW-Nr.
  D0EB    50             C      	db	diskdi mod 100	;;maximale Zahl phys. Spuren
                         C       if	(diskdi mod 1000)/100 eq 5	;;5" 
                         C        if	(diskdi mod 100) gt 40
                         C         if ((diskdi mod 10000)/1000) and 00000001b
  D0EC    28             C      	db	4*10		;;Schrittzeit fuer 80 Tr. DS LW
                         C         endif
                         C        endif
                         C       endif
                         C      
  0000                   C      @dpbhl	aset	0		;;vorbereiten Laufwerkstyp-Flags
                         C      
                         C       if	(diskdi ge 10000)
  0008                   C      @dpbhl	aset	@dpbhl xor (1 shl dpbtdd)	;;double density
                         C       endif
                         C       if	(diskdi mod 1000)/100 eq 5
  0018                   C      @dpbhl	aset	@dpbhl xor (1 shl dpbt5z)	;;5" 
                         C       endif
                         C       if (diskdi mod 100) eq 80
  0038                   C      @dpbhl	aset	@dpbhl xor (1 shl dpbt80)	;;80-Spur-Laufwerk
                         C       endif
                         C       if	((diskdi mod 10000)/1000) and 00000001b
  0039                   C      @dpbhl	aset	@dpbhl xor (1 shl dpbtds)	;;double sided
                         C       endif
                         C       if ((diskdi mod 10000)/1000) and 00000010b
                         C       endif
                         C       if	(diskdi mod 1000)/100 eq 8	;;8" 
                         C       endif
  D0ED    39             C      	db	@dpbhl	;;vom Laufwerkstyp abhaengige Flags
                         C      
                         C       if	(diskdi mod 1000)/100 eq 5 ;;5" 
                         C        if dbufsz le 7
                         C        else
                         C      ;; log. Sektortranslate-Tabelle fuer andere Formate
  D0EE    01 02 03 04    C      	db	1,2,3,4,5,6,7,8,9,10,11,12,13,14
  D0F2    05 06 07 08    C      
  D0F6    09 0A 0B 0C    C      
  D0FA    0D 0E          C      
  D0FC    0F 10 11 12    C      	db	15,16,17,18,19,20,21,22,23,24,25,26
  D100    13 14 15 16    C      
  D104    17 18 19 1A    C      
                         C        endif
BIOS CP/A, Buerocomputer (A5120/30 u. ae.)	MACRO-80 V3.50	25-Oct-85	Page	1-22


                         C       endif
                         C       if	(diskdi mod 1000)/100 eq 8	;;8" 
                         C       endif	;;8" 
                                 ENDIF
                                 IF diskd ne 0
                                 ENDIF
                                
                                
                                ;=======================
                                ; CP/M-Erweiterungen
                                ;=======================
  D108                          cpmx00: IF	monitor
                                	ELSE
  D108    C9                    	ret
  D109    00                    	nop
  D10A    00                    	nop
                                	ENDIF
  D10B    C3 E4B9               cpmx03: jp	tim5on		;5ms Takt an
  D10E    C3 E4C0               cpmx06: jp	tim5of		;5ms Takt aus
  D111    C3 E4C4               cpmx09: jp	tim1on		;1s Takt an
  D114    C3 E4CB               cpmx0c: jp	tim1of		;1s Takt aus
                                	IF	mprot
                                	ELSE
  D117    C9                    	ret
  D118    00                    	nop
  D119    00                    	nop
  D11A    C9                    	ret
  D11B    00                    	nop
  D11C    00                    	nop
  D11D    C9                    	ret
  D11E    00                    	nop
  D11F    00                    	nop
                                	ENDIF
                                 IF stpvar or monitor
  D120    C3 E5E7               cpmx18: jp	delsps		;verzoegern Sondertasten
  D123    C3 E5F4               cpmx1b: jp	delspr		;erlauben Sondertasten
                                 ENDIF
                                 IF umlaut
  D126    C3 D665               cpmx1e: jp	crtuml
                                 ENDIF
  D129    C3 DD31               cpmx21: jp	diskio		;phys. Disktransfer
                                				;Schnittstelle siehe BIOxDSKT.MAC
                                
                                	page	66
BIOS CP/A, Buerocomputer (A5120/30 u. ae.)	MACRO-80 V3.50	25-Oct-85	Page	1-23


                                
                                ;$$$$$$$$$$$$$$$$$$$$$$$$$$$$$$$$$$$$$$$$$$$$$$$$$$$$$$$$$$$$
                                ;	Beginn BIOS-Treiber
                                ;$$$$$$$$$$$$$$$$$$$$$$$$$$$$$$$$$$$$$$$$$$$$$$$$$$$$$$$$$$$$
                                
                                ; Dummy-Treiber
  D12C                          dumst:
  D12C    AF                    	xor	a
  D12D    3D                    	dec	a		;Status immer FF (bereit)
                                 IF iobvar
                                 ENDIF
  D12E    C9                    	ret			;Status immer FF (bereit)
                                
                                 IF iobvar
  D12F    3E 1A                 dumi:	ld	a,1ah		;Eingabe-Zeichen immer EOF
  D131    C9                    	ret
  D132    79                    dumo:	ld	a,c
  D133    11 D13F               	ld	de,dumoh
  D136    CD E6D4               	call	mrecoa		;Zeichen hex aufbereiten
  D139    0E 28                 	ld	c,'('
  D13B    CD D454               	call	crto
  D13E    01 0000               	ld	bc,0
  D13F                          dumoh	equ	$-2
  D141    C5                    	push	bc
  D142    CD D454               	call	crto
  D145    C1                    	pop	bc
  D146    48                    	ld	c,b
  D147    CD D454               	call	crto
  D14A    0E 29                 	ld	c,')'
  D14C    C3 D454               	jp	crto
                                 ENDIF
                                
                         C      	include BIOSKBD
                         C      ;****************************************************
                         C      ;	Tastatur-Eingabe
                         C      ; - Unterstuetzung weiterer Steckplaetze fuer IFSS-Tastatur
                         C      ;   (z.B. Digitalisier-AP)
                         C      ; - freie Belegbarkeit Kursor- und rechter Ziffernblock
                         C      ; 17.07.88
                         C      ; - uebersichtlichere Darstellung phys. -> virtueller Tastencode
                         C      ; 24.09.88
                         C      ; - Anpassung Tastaturpuffer in Statuszeile an umschaltbaren Bildschirmpuffer
                         C      ; 25.09.88
                         C      ; - Fehler in Stop-Tasten-Behandlung korrigiert
                         C      ; 07.11.88
                         C      ; - Erweiterung des virtuellen Tastaturcodes um K7634-spezifische Tasten
                         C      ; 23.12.88
                         C      ; - saemtliche Sondertasten c0..ff liefern mit Control oder Shift einen
                         C      ;   virtuellen Zwischencode 80..bf
                         C      ; 14.01.89
                         C      ; - Variante K7633 (kbdotp eq 3) eingefuehrt
                         C      ; - wenn Tastatur nach RESET gross schreibt, so caps-lock-Test invertiert
                         C      ; 20.01.89
                         C      ; - Abtesten auf ^Q-Prefix ueber virtuellen Tastencode
                         C      ; 22.03.89
                         C      ; - Control-Flag gilt genau fuer das naechste Zeichen
                         C      ; 31.03.89
                         C      ; - Sondertasten >=80h ignoriert, wenn nicht in Tastatur-Tabelle
                         C      ; 25.09.89
                         C      ; - Fehlerkorrektur K7637: CTRL-Ersatztaste brachte kein ^Q-Prefix
                         C      ;****************************************************
BIOS CP/A, Buerocomputer (A5120/30 u. ae.)	MACRO-80 V3.50	25-Oct-85	Page	1-24


                         C      
                         C       if1
                         C       endif	;if1
                         C      
                         C      ; Tastatur-Status
                         C      ;================
  D14F                   C      kbdst:
                         C      ; vor Pufferabfrage anstehende Zeichen lesen (falls 5ms Takt aus)
  D14F    F3             C      	di			;parallele Abfrage ueber 5ms verhindern
                         C       IF cpastz
                         C       ENDIF
  D150    CD D157        C      	call	kbdsti		;interner Aufruf
  D153    FB             C      	ei
                         C       IF stpvar or monitor
  D154    C3 E600        C      	jp	chksp		;Test auf Spezialfunktionen
                         C       ENDIF
                         C      
  D157                   C      kbdsti:				;kbdst-Aufruf intern
  D157    CD D233        C      kbdstz:	call	kbdst1		;Taste neu gedrueckt ?
  D15A    28 05          C      	jr	z,kbdsnt	;nein
  D15C    CD D168        C      	call	kbdrdt		;Taste in Puffer ablegen
                         C       IF stpvar
                         C       ENDIF
  D15F    18 F6          C      	jr	kbdstz		;auf neuen Tastendruck testen
                         C      
  D161    3E 00          C      kbdsnt:	ld	a,0		;erstes Pufferzeichen
  D162                   C      kbdbfe	equ	$-1
  D163    B7             C      	or	a		;Puffer leer?
  D164    C8             C      	ret	z		;ja
  D165    3E FF          C      	ld	a,0ffh
  D167    C9             C      	ret
                         C      
                         C      ;------------------------------------------------------------
                         C      
                         C      
                         C      ; Taste umkodieren und im Puffer ablegen
                         C      ;=======================================
                         C      ; Achtung!! Dieses UP wird aus Interruptroutine aufgmrufen
  D168    CD D253        C      kbdrdt:	call	kbdrch		;Zeichen evtl. umkodieren
  D16B    21 D03D        C      	ld	hl,synflg
                         C      
  D16E    FE DF          C      	cp	ctlc		;Ersatz-Control-Taste ?
  D170    20 05          C      	jr	nz,kbdnct	;nein
  D172    7E             C      	ld	a,(hl)
  D173    EE 01          C      	xor	1 shl ctrlst	;CTRL-Status umkehren
  D175    77             C      	ld	(hl),a
  D176    C9             C      	ret			;und Zeichen ignorieren
  D177                   C      kbdnct:
                         C      
                         C       IF stpvar
  D177    CB 7E          C      	bit	phyact,(hl)	;Taste physisch in Puffer?
  D179    C2 D1C2        C      	jp	nz,kbdput	;ja, direkt ablegen
                         C       ENDIF
                         C       IF costu
                         C       ENDIF
  D17C    2A D03B        C      	ld	hl,(kbdsst)	;Adresse der Standardstringtabelle
  D17F    CD D299        C      	call	costr		;Standardstring?
  D182    28 07          C      	jr	z,kbdnco	;nein
  D184    1D             C      kbdco:	dec	e		;String der Laenge 0?
  D185    C8             C      	ret	z		;ja, zu ignorierende Taste
  D186    1D             C      	dec	e		;String exakt ein Zeichen lang?
  D187    C2 D1D9        C      	jp	nz,kbdco1	;nein, kann keine Sondertaste sein
BIOS CP/A, Buerocomputer (A5120/30 u. ae.)	MACRO-80 V3.50	25-Oct-85	Page	1-25


  D18A    7E             C      	ld	a,(hl)		;holen erstes Stringzeichen
  D18B    21 D03D        C      kbdnco:	ld	hl,synflg
                         C      
                         C      ; Auswertung Sondertasten, die nicht im Puffer abgelegt werden
                         C      ;-------------------------------------------------------------
                         C      
  D18E    FE DE          C      	cp	stpc		;STOP ?
  D190    20 0A          C      	jr	nz,kbdnst
  D192    CB E6          C      	set	stoprq,(hl)	;Stop-Request vermerken
                         C      
                         C      ; Rest des Konsolpuffers streichen
                         C      ;---------------------------------
  D194    AF             C      kbdbcl:	xor	a
                         C       IF cpastz
                         C       ENDIF
  D195    32 FFFF        C      	ld	(0ffffh),a
  D196                   C      crtm36	equ	$-2
                         C       IF cpastz
                         C       ENDIF
  D198    32 D162        C      	ld	(kbdbfe),a
  D19B    C9             C      	ret
                         C      
  D19C                   C      kbdnst:
                         C       IF stpvar
                         C       IF chdvar
  D19C    FE D9          C      	cp	SyLc		;Drucker Synchronisieren?
  D19E    20 03          C      	jr	nz,kbdnsy	;nein
  D1A0    CB DE          C      	set	synlrq,(hl)	;sonst vermerken
  D1A2    C9             C      	ret
  D1A3                   C      kbdnsy:
  D1A3    FE DA          C      	cp	HrLc		;Hardcopy ein/aus ?
  D1A5    20 0C          C      	jr	nz,kbdnhc
  D1A7    21 D00C        C      	ld	hl,conol
  D1AA    7E             C      	ld	a,(hl)
  D1AB    EE 0E          C      	xor	0cdh xor 0c3h	;CALL aus JP u.umgekehrt
  D1AD    77             C      	ld	(hl),a
  D1AE    3E 80          C      	ld	a,1 shl lmphcp	;Hardcopy-Lampe
  D1B0    C3 D2AB        C      	jp	kbdslm
  D1B3                   C      kbdnhc:
                         C       ENDIF
                         C       ENDIF	;stpvar
                         C      
                         C       IF monitor
                         C       ENDIF
                         C      
  D1B3    FE D1          C      	cp	Sel0		;Selector 0?
  D1B5    38 09          C      	jr	c,kbdnsl	;nein
  D1B7    FE D9          C      	cp	Sel3+1		;Selector 0..3?
  D1B9    30 05          C      	jr	nc,kbdnsl	;nein
  D1BB    E6 0F          C      	and	0fh		;Bit 0..3
  D1BD    C3 D2AB        C      	jp	kbdslm
  D1C0                   C      kbdnsl:
  D1C0    B7             C      	or	a		;Taste zu ignorieren?
  D1C1    F8             C      	ret	m		;ja
                         C      
                         C      ; Zeichen im Puffer ablegen
                         C      ;--------------------------
  D1C2                   C      kbdput:
                         C       IF cpastz
                         C       ENDIF
  D1C2    21 FFFF        C      	ld	hl,0ffffh	;Pufferadresse
  D1C3                   C      crtm35	equ	$-2
BIOS CP/A, Buerocomputer (A5120/30 u. ae.)	MACRO-80 V3.50	25-Oct-85	Page	1-26


  D1C5    01 0014        C      	ld	bc,kbdbl	;Pufferlaenge
  D1C8    5F             C      	ld	e,a		;A retten
  D1C9    AF             C      	xor	a		;Pufferende-Kennzeichen
  D1CA    ED B1          C      	cpir
  D1CC    20 08          C      	jr	nz,kbdpt1	;Puffer voll
  D1CE    77             C      	ld	(hl),a		;neues Pufferende anzeigen
  D1CF    7B             C      	ld	a,e		;A wiederherstellen
  D1D0    2B             C      	dec	hl
  D1D1    77             C      	ld	(hl),a		;Zeichen puffern
                         C      ;um bei Arbeit mit Anzeige des Tastaturpuffers in Statuszeile
                         C      ;Bildschirmflimmern zu vermeiden hinterlegen des gepufferten Zeichens
                         C      ;ausserhalb des Bildschirmbereichs fuer Test, ob ueberhaupt etwas im Puffer
                         C       IF cpastz
                         C       ENDIF
  D1D2    32 D162        C      	ld	(kbdbfe),a
  D1D5    C9             C      	ret
  D1D6                   C      kbdpt1:
                         C       IF cpastz
                         C       ENDIF
  D1D6    C3 D5F3        C      	jp	crtclk		;Puffer voll anzeigen
                         C      
                         C      ; Ablegen String im Puffer
                         C      ;-------------------------
                         C      ; i E	Stringlaenge -1
                         C      ; i HL	Stringanfang
  D1D9    1C             C      kbdco1:	inc	e
  D1DA    E5             C      kbdco2:	push	hl
  D1DB    D5             C      	push	de
  D1DC    7E             C      	ld	a,(hl)
  D1DD    CD D1C2        C      	call	kbdput		;Zeichen in Puffer
  D1E0    D1             C      	pop	de
  D1E1    E1             C      	pop	hl
  D1E2    23             C      	inc	hl
  D1E3    1D             C      	dec	e
  D1E4    20 F4          C      	jr	nz,kbdco2	;wenn String noch nicht fertig
  D1E6    C9             C      	ret
                         C      
                         C      ; Holen naechstes Tastaturzeichen mit Warten
                         C      ;===========================================
  D1E7                   C      kbdi:
  D1E7                   C      kbdmd1:		;Modifizierung bei K7634/36/37 mit:
                         C      ;kbdwin:call	kbdst		;Taste im Puffer
                         C      ;	jr	z,kbdwin	;nein, warten
                         C      ;	jp	kbdinn		;sonst aeltestes Pufferzeichen
                         C      
  D1E7    CD D14F        C      kbdwin:	call	kbdst		;Taste im Puffer?
  D1EA    20 32          C      	jr	nz,kbdinn	;ja
  D1EC    21 D1F0        C      	ld	hl,kbdwt	;wartefaktor
  D1EF    06 64          C      	ld	b,100		;fuer dauerfunktion
  D1F0                   C      kbdwt	equ	$-1
  D1F1    36 0A          C      	ld	(hl),10		;auf 10*0,01sec fuer
                         C      				;gleiche taste
  D1F3    18 07          C      	jr	kbdwst		;einspr. in zyklus
  D1F5    C5             C      kbdwa:	push	bc
  D1F6    06 01          C      	ld	b,1		;0,01 sec warten
  D1F8    CD E6C5        C      	call	wait10
  D1FB    C1             C      	pop	bc
  D1FC    CD D233        C      kbdwst:	call	kbdst1		;taste neu gedrueckt?
  D1FF    20 13          C      	jr	nz,kbdwb	;ja, abholen ueber kbdst
  D201    DB 06          C      	in	a,(kbdpci)	;taste noch gedrueckt?
  D203    B7             C      	or	a		;(funktioniert nur bei K760X!)
  D204    28 0E          C      	jr	z,kbdwb		;nein; warten
BIOS CP/A, Buerocomputer (A5120/30 u. ae.)	MACRO-80 V3.50	25-Oct-85	Page	1-27


  D206    10 ED          C      	djnz	kbdwa		;abwarten, wie lange
                         C      
  D208    CD D253        C      	call	kbdrch		;Zeichen umkodieren
  D20B    B7             C      	or	a		;Sondertaste?
  D20C    FA D1E7        C      	jp	m,kbdwin	;ja, keine Dauerfunktion
  D20F    CD D1C2        C      	call	kbdput		;sonst puffern
  D212    18 0A          C      	jr	kbdinn		;und aeltestes Pufferzeichen uebergeben
  D214    CD D14F        C      kbdwb:	call	kbdst		;abwarten tastendruck
  D217    28 FB          C      	jr	z,kbdwb
  D219    21 D1F0        C      kbdwe:	ld	hl,kbdwt	;bei neuer taste
  D21C    36 64          C      	ld	(hl),100	;100*0.01 sec warten
                         C      
  D21E                   C      kbdinn:
                         C       IF cpastz
                         C       ENDIF
  D21E    11 FFFF        C      	ld	de,0ffffh	;Kopf des Tastaturpuffers
  D21F                   C      crtm33	equ	$-2
  D221    1A             C      	ld	a,(de)		;1.Zeichen lesen
  D222    21 0000        C      	ld	hl,0ffffh+1	;Puffer umspeichern
  D223                   C      crtm34	equ	$-2
  D225    01 0014        C      	ld	bc,kbdbl	;einschl. 00h am Ende
  D228    ED B0          C      	ldir			;parall. Tastatur-Interrupt
                         C      				;stoert nicht, da alles umgesp.
  D22A    5F             C      	ld	e,a
  D22B    3A FFFF        C      	ld	a,(0ffffh)
  D22C                   C      crtm32	equ	$-2		;auf Kopf des Tastaturpuffers
                         C       IF cpastz
                         C       ENDIF
  D22E    32 D162        C       	ld	(kbdbfe),a	;neues Zeichen als Flag Puffer voll/leer
  D231    7B             C      	ld	a,e
  D232    C9             C      	ret
                         C      
                         C      ;-------------------------------------------------------------
                         C      
                         C      ; Test, ob Taste (neu) gedrueckt
                         C      ;===============================
                         C      ; o AF	=00 und Z=1	keine Taste
                         C      ;	=FF und Z=0	es ist eine Taste gedrueckt
  D233                   C      kbdst1:
                         C      
                         C      ; Modifiziert bei K7637 mit
                         C      ;kbdst1:in	a,(kbdscs) bzw. (kbddcs)
                         C      ;	and	1
                         C      ;	ret	z		;(a)=0, z=1
                         C      ;	ld	hl,synflg
                         C      ;	bit	ctrlst,(hl)	;Ersatz-CNTL?
                         C      ;	ld	a,0ffh		;Schnittmaske c0..ff -> c0..ff
                         C      ;	jr	z,cst37b	;nein
                         C      ;	ld	a,0bfh		;Schnittmaske c0..ff -> 80..bf
                         C      ;cst37b:ld	(kbdlcs),a
                         C      ;	xor	a
                         C      ;	dec	a		;(a)=ff, z=0
                         C      ;	ret
                         C      
                         C      ; Modifiziert bei K7633 mit
                         C      ;kbdst1:in	a,(kbdbcs)
                         C      ;	and	3
                         C      ;	ret	z		;(a)=0, z=1
                         C      ;	ld	hl,synflg
                         C      ;	bit	ctrlst,(hl)	;Ersatz-CNTL?
                         C      ;	ld	a,0ffh		;Schnittmaske c0..ff -> c0..ff
                         C      ;	jr	z,cst33b	;nein
BIOS CP/A, Buerocomputer (A5120/30 u. ae.)	MACRO-80 V3.50	25-Oct-85	Page	1-28


                         C      ;	ld	a,0bfh		;Schnittmaske c0..ff -> 80..bf
                         C      ;cst33b:ld	(kbdlcs),a
                         C      ;	xor	a
                         C      ;	dec	a		;(a)=ff, z=0
                         C      ;	ret
                         C      
                         C      ; Version fuer alle anderen Tastaturen
  D233    DB 01          C      	in	a,(kbdpcs)
  D235    2F             C      kbdstc:	cpl			;auf NOP, wenn Status negiert
                         C      ; Bit 3	=1:Taste gedrueckt
                         C      ; Bit 2	=1:Control gedrueckt
  D236    CB 5F          C      	bit	3,a		;Taste gedrueckt?
  D238    28 17          C      	jr	z,kbdst0	;nein
  D23A    21 D03D        C      	ld	hl,synflg
  D23D    CB 57          C      	bit	2,a		;CNTL-Taste gedrueckt?
  D23F    28 02          C      kbdstm:	jr	z,cst34a	;nein (auf jr modif., wenn kein CNTL-Status)
  D241    CB C6          C      	set	ctrlst,(hl)	;sonst vermerken
  D243    CB 46          C      cst34a:	bit	ctrlst,(hl)	;Taste mit CNTL oder Ersatz-CNTL?
  D245    3E FF          C      	ld	a,0ffh		;Schnittmaske c0..ff -> c0..ff
  D247    28 02          C      	jr	z,cst34b	;nein
  D249    3E BF          C      	ld	a,0bfh		;Schnittmaske c0..ff -> 80..bf
  D24B    32 D28E        C      cst34b:	ld	(kbdlcs),a
  D24E    AF             C      	xor	a
  D24F    3D             C      	dec	a		;(a)=ff, z=0
  D250    C9             C      	ret
  D251    AF             C      kbdst0:	xor	a		;(a)=0, z=1
  D252    C9             C      	ret
                         C      ;-------------------------------------------------------------
                         C      
                         C      ;Zeichen von Tastatur lesen , CAPS-Lock realisieren
                         C      ;==================================================
  D253    CD D26C        C      kbdrch:	call	kbdrcu		;Zeichen holen
  D256    21 0040        C      	ld	hl,lampbf
  D259    CB 46          C      	bit	kbdcpb,(hl)	;CAPS-Lock?
  D25B    C8             C      kbdmd3:	ret	z		;nein (auf ret nz, wenn nach RESET Grossb.)
  D25C    FE 41          C      	cp	'A'
  D25E    D8             C      	ret	c
  D25F    FE 5B          C      	cp	'Z'+1
  D261    38 06          C      	jr	c,kbdcp1
  D263    FE 61          C      	cp	'a'
  D265    D8             C      	ret	c
  D266    FE 7B          C      	cp	'z'+1
  D268    D0             C      	ret	nc
  D269    EE 20          C      kbdcp1:	xor	20h		;gross <-> klein
  D26B    C9             C      	ret
                         C      
                         C      ; Zeichen von Tastatur umkodieren
                         C      ;================================
  D26C                   C      kbdrcu:
  D26C    DB 06          C      	in	a,(kbdpci)	;Zeichen lesen
  D26D                   C      kbdmt1	equ	$-1		;auf "kbdsci/kbddci" bei K7637
                         C      
  D26E    21 D31C        C      cocpm1:	ld	hl,kbdcpt
  D271    4E             C      kbdrc3:	ld	c,(hl)		;phys. Tastencode
  D272    0C             C      	inc	c
  D273    0D             C      	dec	c		;TabEnde?
  D274    28 07          C      	jr	z,kbdrc1	;ja
  D276    B9             C      	cp	c		;Umcodieren ?
  D277    23             C      	inc	hl
  D278    28 07          C      	jr	z,kbdrc2	;ja
  D27A    23             C      	inc	hl
  D27B    18 F4          C      	jr	kbdrc3		;weiter in Tab
BIOS CP/A, Buerocomputer (A5120/30 u. ae.)	MACRO-80 V3.50	25-Oct-85	Page	1-29


  D27D    FE 80          C      kbdrc1:	cp	80h		;Sonderzeichen, das nicht in Tabelle?
  D27F    38 01          C      	jr	c,kbdrc6	;nein; sonst A=00, d.h. Zeichen ignorieren
  D281    7E             C      kbdrc2:	ld	a,(hl)		;virtueller Tastencode
  D282                   C      kbdrc6:	
                         C      
  D282                   C      cocpm2:
  D282    21 D03D        C      	ld	hl,synflg
  D285    FE 20          C      	cp	20h		;Sondertaste?
  D287    38 0D          C      	jr	c,kbdrc5	;<20h, ja
  D289    FE 80          C      	cp	80h		
  D28B    38 04          C      	jr	c,kbdrc4	;nein
                         C      ; virtueller Code 80..ff
  D28D    E6 FF          C      	and	0ffh
  D28E                   C      kbdlcs	equ	$-1		;auf bfh, wenn Taste mit Control/Shift
  D28F    18 05          C      	jr	kbdrc5
                         C      ; normale Taste 20..7f
  D291    CB 46          C      kbdrc4:	bit	ctrlst,(hl)	;norm. Taste mit Control?
  D293    C8             C      	ret	z
  D294    E6 1F          C      	and	1fh		;CTRL realisieren
  D296    CB 86          C      kbdrc5:	res	ctrlst,(hl)
  D298    C9             C      	ret
                         C      
                         C      ; Suchen, ob Taste (A) umzukodieren entspr. Stringtab ab (HL)
                         C      ; ret z:	nicht gefunden, A unveraendert
                         C      ; ret nz:	gefunden, A unveraendert
                         C      ;		E Stringlaenge +1
                         C      ;		HL Stringanfang (nur gueltig falls E>1!)
  D299    16 00          C      costr:	ld	d,0
  D29B    4E             C      costr0:	ld	c,(hl)		;Tastencode o. Tabende
  D29C    0C             C      	inc	c		;Tabende?
  D29D    C8             C      	ret	z		;ja, nicht gefunden
  D29E    23             C      	inc	hl
  D29F    5E             C      	ld	e,(hl)		;Stringlaenge
  D2A0    1C             C      	inc	e		;+1
  D2A1    0D             C      	dec	c		;Tastencode wiederherstellen
  D2A2    B9             C      	cp	c		;Zeichen umkodieren?
  D2A3    28 03          C      	jr	z,costr1	;ja
  D2A5    19             C      	add	hl,de		;String uebergehen
  D2A6    18 F3          C      	jr	costr0
  D2A8                   C      costr1:
  D2A8    23             C      	inc	hl
  D2A9    14             C      	inc	d		;ret nz
  D2AA    C9             C      	ret
                         C      
                         C       IF costu
                         C       ENDIF
                         C      
                         C      ; Tastatur-Lampe umschalten
                         C      ;==========================
  D2AB    21 0040        C      kbdslm:	ld	hl,lampbf
  D2AE    AE             C      	xor	(hl)		;Lampe ein/aus
  D2AF    77             C      	ld	(hl),a
                         C      
                         C      ; Tastatur-Lampen ein/aus
                         C      ;========================
                         C      ; Achtung! Diese Routine wird auch aus Interrupt-Routine
                         C      ; aufgerufen (EI/DI darf hier nicht auftreten!!)
  D2B0                   C      lampen:
                         C      
  D2B0                   C      kbdmd2:		;Routine fuer K7637,
                         C      ;		 wird modifiziert bei K7604/06/34/36
  D2B0    3A 0040        C      lampen:	ld	a,(lampbf)
BIOS CP/A, Buerocomputer (A5120/30 u. ae.)	MACRO-80 V3.50	25-Oct-85	Page	1-30


  D2B3    EE 00          C      	xor	00h		;ermitteln veraenderte Bits
  D2B4                   C      lamplt	equ	$-1		;Kopie Lampen-Puffer
  D2B5    C8             C      	ret	z		;unveraendert
  D2B6    21 E4F0        C      	ld	hl,intkbd
  D2B9    36 21          C      	ld	(hl),21h	;call ... -> ld hl,...
                         C      				;d.h. 5ms Tastaturabfrage verbieten
  D2BB    26 55          C      	ld	h,55h		;Standard-Vorbyte
  D2BD    6F             C      	ld	l,a
  D2BE    CB 7D          C      	bit	7,l		;INS-MODE ?
  D2C0    28 06          C      	jr	z,lampb6	;nein
  D2C2    7C             C      	ld	a,h
  D2C3    D3 5C          C      	out	(kbdsci),a
  D2C4                   C      k37dm3	equ	$-1		;modfiziert bei Digitalisier-AP
  D2C5    CD D30A        C      	call	lmpout
  D2C8    CB 75          C      lampb6:	bit	6,l		;Fehlerlampe ?
  D2CA    28 05          C      	jr	z,lampb3	;nein
  D2CC    3E 20          C      	ld	a,20h
  D2CE    CD D30A        C      	call	lmpout
  D2D1    CB 5D          C      lampb3:	bit	3,l		;Sel3?
  D2D3    28 08          C      	jr	z,lampb2
  D2D5    7C             C      	ld	a,h
  D2D6    D3 5C          C      	out	(kbdsci),a
  D2D7                   C      k37dm4	equ	$-1		;modfiziert bei Digitalisier-AP
  D2D8    3E 52          C      	ld	a,52h
  D2DA    CD D30A        C      	call	lmpout
  D2DD    CB 55          C      lampb2:	bit	2,l		;Sel2?
  D2DF    28 08          C      	jr	z,lampb1
  D2E1    7C             C      	ld	a,h
  D2E2    D3 5C          C      	out	(kbdsci),a
  D2E3                   C      k37dm5	equ	$-1		;modfiziert bei Digitalisier-AP
  D2E4    3E 44          C      	ld	a,44h
  D2E6    CD D30A        C      	call	lmpout
  D2E9    CB 4D          C      lampb1:	bit	1,l
  D2EB    28 08          C      	jr	z,lampb0
  D2ED    7C             C      	ld	a,h
  D2EE    D3 5C          C      	out	(kbdsci),a
  D2EF                   C      k37dm6	equ	$-1		;modfiziert bei Digitalisier-AP
  D2F0    3E 20          C      	ld	a,20h
  D2F2    CD D30A        C      	call	lmpout
  D2F5    CB 45          C      lampb0:	bit	0,l
  D2F7    28 05          C      	jr	z,lampbn
  D2F9    3E 52          C      	ld	a,52h
  D2FB    CD D30A        C      	call	lmpout
  D2FE    3A 0040        C      lampbn:	ld	a,(lampbf)
  D301    32 D2B4        C      	ld	(lamplt),a	;neuen Zustand merken
  D304    21 E4F0        C      	ld	hl,intkbd
  D307    36 CC          C      	ld	(hl),0cch	;ld hl,... -> call z,...
  D309    C9             C      	ret
                         C      
  D30A    E5             C      lmpout:	push	hl
  D30B    D3 5C          C      	out	(kbdsci),a
  D30C                   C      k37dm7	equ	$-1		;modfiziert bei Digitalisier-AP
  D30D    CD D233        C      lmpow:	call	kbdst1		;warten auf Antwort
  D310    28 FB          C      	jr	z,lmpow
  D312    DB 5C          C      	in	a,(kbdsci)
  D313                   C      k37dm8	equ	$-1		;modfiziert bei Digitalisier-AP
  D314    E6 F0          C      	and	0f0h
  D316    FE 80          C      	cp	typc37		;Antwort da?
  D318    20 F3          C      	jr	nz,lmpow	;nein
  D31A    E1             C      	pop	hl
  D31B    C9             C      	ret
                         C      
BIOS CP/A, Buerocomputer (A5120/30 u. ae.)	MACRO-80 V3.50	25-Oct-85	Page	1-31


                         C      ; virtuelle Tastencodes: (unabhaengig von TastaturTyp)
                         C      ;=======================
                         C      
                         C      ; Beim Betaetigen zusammen mit CONTROL/SHIFT wird bei allen folgenden
                         C      ; Tastencodes >=c0h Bit 6 geloescht (d.h. Codes liegen von 80h..bfh)
                         C      
                         C      ; Kursortasten
                         C      ;-------------
  00C1                   C      kcurwl	equ	0c1h
  00C2                   C      kcurup	equ	0c2h
  00C3                   C      kcurwr	equ	0c3h
  00C4                   C      kcurlf	equ	0c4h
  00C5                   C      kcurpu	equ	0c5h
  00C6                   C      kcurri	equ	0c6h
  00C7                   C      kcurpd	equ	0c7h
  00C8                   C      kcurdw	equ	0c8h
                         C      
                         C      ; Sondertasten
                         C      ;-------------
                         C      ;		0c9h		;belegt mit zblb
  00CA                   C      spcclr	equ	0cah		;CLEAR
  00CB                   C      spccnc	equ	0cbh		;CNCL	
  00CC                   C      spcce	equ	0cch		;CE bzw. ERASE INPUT
  00CD                   C      spcins	equ	0cdh		;INS
  00C0                   C      spcdel	equ	0c0h		;DEL
  00CE                   C      spckor	equ	0ceh		;KOR
  00CF                   C      spcrol	equ	0cfh		;ROLL <-
  00D0                   C      spcror	equ	0d0h		;ROLL ->
                         C      
                         C      ; Bei Einfuehrung neuer Sonderzeichen zwischen Sel0..Sel3 muss
                         C      ; Test auf Sel0..3 zuletzt erfolgen, da diese als Gruppe
                         C      ; getestet werden, aber nicht dicht liegen!
  00D1                   C      Sel0	equ	0d1h;!!hintere!!	;LED 0 bei SEL 0
  00D2                   C      Sel1	equ	0d2h;!!Tetrade!!	;LED 1 bei SEL 1
  00D4                   C      Sel2	equ	0d4h;!!=2**LED!!	;LED 2 bei SEL 2
  00D8                   C      Sel3	equ	0d8h;!!	      !!	;LED 3 bei SEL 3
                         C      
  00D9                   C      SyLc	equ	0d9h			; Synch. List
  00DA                   C      HrLc	equ	0dah			; Hardcopy
  00DB                   C      Monc	equ	0dbh			; BIOS-Monitor
  00DC                   C      z00c	equ	0dch			; "00" im Ziffernblock
  00DD                   C      z000	equ	0ddh			; "000" im Ziffernblock
  00DE                   C      stpc	equ	0deh			; allg. STOP
  00DF                   C      ctlc	equ	0dfh			; Control (-Ersatz)
                         C      
                         C      ; Funktionstasten
                         C      ;----------------
  00E0                   C      pf0c	equ	0e0h			;PF0 bzw. S0 bzw. Enter im Ziffernblock
  00E1                   C      pf1c	equ	0e1h			;PF1...
  00E2                   C      pf2c	equ	0e2h
  00E3                   C      pf3c	equ	0e3h
  00E4                   C      pf4c	equ	0e4h
  00E5                   C      pf5c	equ	0e5h
  00E6                   C      pf6c	equ	0e6h
  00E7                   C      pf7c	equ	0e7h
  00E8                   C      pf8c	equ	0e8h
  00E9                   C      pf9c	equ	0e9h
                         C      ;***die folgenden 6 Funktionstasten ex nicht bei allen
                         C      ; Tastaturen, koennen aber durch andere Tasten ersetzt werden!
  00EA                   C      pfac	equ	0eah
  00EB                   C      pfbc	equ	0ebh
  00EC                   C      pfcc	equ	0ech
BIOS CP/A, Buerocomputer (A5120/30 u. ae.)	MACRO-80 V3.50	25-Oct-85	Page	1-32


  00ED                   C      pfdc	equ	0edh
  00EE                   C      pfec	equ	0eeh		;bei CP/A i.a. Monitor-Taste
  00EF                   C      pffc	equ	0efh		;bei CP/A i.a. Stop-Taste
                         C      
                         C      ;rechter Ziffernblock
                         C      ;--------------------
  00F0                   C      zbl0	equ	0f0h
  00F1                   C      zbl1	equ	0f1h
  00F2                   C      zbl2	equ	0f2h
  00F3                   C      zbl3	equ	0f3h
  00F4                   C      zbl4	equ	0f4h
  00F5                   C      zbl5	equ	0f5h
  00F6                   C      zbl6	equ	0f6h
  00F7                   C      zbl7	equ	0f7h
  00F8                   C      zbl8	equ	0f8h
  00F9                   C      zbl9	equ	0f9h
  00DC                   C      zbl00	equ	z00c
  00DD                   C      zbl000	equ	z000
  00FA                   C      zblkom	equ	0fah		;Komma im Ziffernblock
  00FB                   C      zblmin	equ	0fbh		;Minus im Ziffernblock bei CP/A i.a. HardCopy
                         C      	;Enter im Ziffernblock als "pf0c" behandelt
  00FC                   C      zbla	equ	0fch		;Taste im Ziffernblock ueber der "7"
                         C      ;		0fdh		;belegt wegen TastenUmdefinitionsBegrenzer
  00C9                   C      zblb	equ	0c9h		;dito "8"
  00FE                   C      zblc	equ	0feh		;dito "9"
                         C      
                         C      ; zu ignorierende Tasten
                         C      ;-----------------------
  00FF                   C      cign	equ	0ffh			;Taste ignorieren
                         C      
  0000                   C      kbdcpb	equ	lmpsl0	;0..3, Selectortaste fuer CAPS-Lock
  0001                   C      kbdcal	equ	lmpsl1	;0..3, Selectortaste fuer ALPHA K7633
                         C      
                         C      ; Die folgende Code-Tabelle wird je nach Tastaturtyp beim
                         C      ; Kaltstart modifiziert. Sie dient dazu, um einen virtuellen
                         C      ; Tastaturcode zu erzeugen, der dann durch die String-
                         C      ; umkodierungstabellen unabhaengig von der konkreten Tastatur
                         C      ; zum eigentlichen Tastencode umgesetzt wird.
                         C      
                         C      ; Codetabelle fuer K7606/36
                         C      ;==========================
                         C      ;(Bemerkung: Falls sich K76x4-Tastaturen mit dem Typcode von K76x6 melden,
                         C      ;wurden einige phys. Tastencodes fuer diese mit aufgenommen, um trotzdem
                         C      ;eine notduerftige Arbeit zu erlauben. Gleichzeitig wird fuer die Kaltstart-
                         C      ;Modifizierung von 'kbdcpt' Reserve-Platz freigehalten.)
                         C      
  D31C                   C      kbdcpt:
                         C      ; Kursortasten
                         C      ;-------------
  D31C    0B C1          C      	db	00BH,kcurwl		;|<-
  D31E    04 C2          C      	db	004H,kcurup		;^
  D320    01 C3          C      	DB	001H,kcurwr		;->|
  D322    06 C4          C      	db	006H,kcurlf		;<-
  D324    0C C5          C      	DB	00CH,kcurpu		;'\
  D326    07 C6          C      	db	007H,kcurri		;->
  D328    0A C7          C      	db	00AH,kcurpd		;<-'
  D32A    05 C8          C      	db	005H,kcurdw		;v
                         C      ; Sondertasten
                         C      ;-------------
  D32C    FF 0D          C      	db	0ffh,0dh		;ET1 als CR
  D32E    9D 0D          C      	db	09dh,0dh		;ENTR			K7604/34
  D330    0F 09          C      	db	00FH,009h		;|<-| als Ersatz Tab
BIOS CP/A, Buerocomputer (A5120/30 u. ae.)	MACRO-80 V3.50	25-Oct-85	Page	1-33


  D332    13 1B          C      	db	013H,01bh		;DELL als Ersatz ESC
  D334    1B C0          C      	db	01BH,spcdel		;DEL
  D336    19 CC          C      	db	019H,spcce		;CE
  D338    09 CC          C      	db	009H,spcce		;ERIN als Ersatz CE	K7604/34
  D33A    03 CD          C      	db	003H,spcins		;INSL
  D33C    1E CD          C          	db	01eH,spcins		;INS			K7604/34
  D33E    A0 D1          C      	DB	0A0H,Sel0		;SEL0
  D340    A1 D2          C      	DB	0A1H,Sel1		;SEL1
  D342    A2 D4          C      	DB	0A2H,Sel2		;SEL2
  D344    A3 D8          C              DB	0A3H,Sel3		;SEL3
  D346    FE DF          C      	db	0feh,ctlc		;ET2 als Control-Taste (Loslassen!)
  D348    1F DF          C      	db	01fH,ctlc		;RESET Control-Taste	K7604/34
                         C      ; num. Tasten
                         C      ;------------
  D34A    14 FF          C      	db	10*2,0ffh		;Reserve fuer rechtes Ziffernfeld
  D34C    11 DC          C      	db	011H,zbl00		;00
  D34E    12 DD          C      	db	012H,zbl000		;000
  D350    A8 FB          C      	DB	0A8H,zblmin		;INSM als Ersatz num. Minus
  D352    02 FB          C      	db	002H,zblmin		;INSM			K7604/34
                         C      ; Funktionstasten
                         C      ;----------------
  D354    C0 E0          C      	db	0c0h,pf0c		;S
  D356    C1 E1          C      	db	0c1h,pf1c		;S1
  D358    C2 E2          C      	db	0c2h,pf2c		;S2
  D35A    C3 E3          C      	db	0c3h,pf3c		;S3
  D35C    C4 E4          C      	db	0c4h,pf4c		;S4
  D35E    C5 E5          C      	db	0c5h,pf5c		;S5
  D360    C6 E6          C      	db	0c6h,pf6c		;S6
  D362    C7 E7          C      	db	0c7h,pf7c		;S7
  D364    C8 E8          C      	db	0c8h,pf8c		;S8
  D366    C9 E9          C      	db	0c9h,pf9c		;S9
  D368    CA EA          C      	db	0cah,pfac		;S10
  D36A    CB EB          C      	db	0cbh,pfbc		;S11
  D36C    CC EC          C      	db	0cch,pfcc		;S12
  D36E    10 EE          C      	db	010H,pfec		;MON als PF14
  D370    08 EE          C      	db	008H,pfec		;EREO als Ersatz PF14	K7604/34
  D372    AF EF          C      	DB	0AFH,pffc		;CI als Ersatz PF15
                         C      
  D374    00             C      	db	0			;Tabellenende
  D375                   C      	ds	12,0			;Reserve fuer K7633, K7637
  0065                   C      kbdcpl	equ	$-kbdcpt		;max. Tabellenlaenge
                         C      ;----------------------------------------------------------
                         C      
                         C      ; String-Umkodierungstabellen
                         C      ;============================
                         C      
                         C      ; Standardstrings:
                         C      
  D381                   C      kbdsts:	costs
  D381    C1 01 01       C+     	db	kcurwl,1,'A' and 1fh
  D384    C2 01 05       C+     	db	kcurup,1,'E' and 1fh
  D387    C3 01 06       C+     	db	kcurwr,1,'F' and 1fh
  D38A    C4 01 08       C+     	db	kcurlf,1,'H' and 1fh
  D38D    C5 01 12       C+     	db	kcurpu,1,'R' and 1fh
  D390    C6 01 04       C+     	db	kcurri,1,'D' and 1fh
  D393    C7 01 03       C+     	db	kcurpd,1,'C' and 1fh
  D396    C8 01 18       C+     	db	kcurdw,1,'X' and 1fh
  D399    E0 01 02       C+     	db	pf0c,1,'B' and 1fh
  D39C    E1 01 07       C+     	db	pf1c,1,'G' and 1fh
  D39F    E2 01 19       C+     	db	pf2c,1,'Y' and 1fh
  D3A2    E3 01 14       C+     	db	pf3c,1,'T' and 1fh
  D3A5    E4 01 16       C+     	db	pf4c,1,'V' and 1fh
BIOS CP/A, Buerocomputer (A5120/30 u. ae.)	MACRO-80 V3.50	25-Oct-85	Page	1-34


  D3A8    E5 01 0C       C+     	db	pf5c,1,'L' and 1fh
  D3AB    E6 02 0F 44    C+     	db	pf6c,2,'O' and 1fh,'D'
  D3AF    E7 02 0F 47    C+     	db	pf7c,2,'O' and 1fh,'G'
  D3B3    E8 01 17       C+     	db	pf8c,1,'W' and 1fh
  D3B6    E9 01 1A       C+     	db	pf9c,1,'Z' and 1fh
  D3B9    EA 04 0B 53    C+     	db	pfac,4,'K' and 1fh,'S','Q' and 1fh,'P'
  D3BD    11 50          C+     
  D3BF    EB 02 0B 42    C+     	db	pfbc,2,'K' and 1fh,'B'
  D3C3    EC 02 0B 4B    C+     	db	pfcc,2,'K' and 1fh,'K'
  D3C7    ED 02 0B 56    C+     	db	pfdc,2,'K' and 1fh,'V'
  D3CB    EE 01 DB       C+     	db	pfec,1,Monc
  D3CE    EF 01 DE       C+     	db	pffc,1,Stpc
  D3D1    F1 01 31       C+     	db	zbl1,1,'1'
  D3D4    F2 01 32       C+     	db	zbl2,1,'2'
  D3D7    F3 01 33       C+     	db	zbl3,1,'3'
  D3DA    F4 01 34       C+     	db	zbl4,1,'4'
  D3DD    F5 01 35       C+     	db	zbl5,1,'5'
  D3E0    F6 01 36       C+     	db	zbl6,1,'6'
  D3E3    F7 01 37       C+     	db	zbl7,1,'7'
  D3E6    F8 01 38       C+     	db	zbl8,1,'8'
  D3E9    F9 01 39       C+     	db	zbl9,1,'9'
  D3EC    F0 01 30       C+     	db	zbl0,1,'0'
  D3EF    DC 02 30 30    C+     	db	zbl00,2,'00'
  D3F3    DD 03 30 30    C+     	db	zbl000,3,'000'
  D3F7    30             C+     
  D3F8    FA 01 2E       C+     	db	zblkom,1,'.'
  D3FB    FB 01 DA       C+     	db	zblmin,1,HrLc
  D3FE    CC 01 18       C+     	db	spcce,1,'X' and 1fh
  D401    CD 01 D9       C+     	db	spcins,1,SyLc
  D404    C0 01 7F       C+     	db	spcdel,1,7fh
  D407    81 02 11 01    C+     	db	kcurwl-40h,2,'Q' and 1fh,'A' and 1fh
  D40B    82 02 11 05    C+     	db	kcurup-40h,2,'Q' and 1fh,'E' and 1fh
  D40F    83 02 11 06    C+     	db	kcurwr-40h,2,'Q' and 1fh,'F' and 1fh
  D413    84 02 11 13    C+     	db	kcurlf-40h,2,'Q' and 1fh,'S' and 1fh
  D417    85 02 11 12    C+     	db	kcurpu-40h,2,'Q' and 1fh,'R' and 1fh
  D41B    86 02 11 04    C+     	db	kcurri-40h,2,'Q' and 1fh,'D' and 1fh
  D41F    87 02 11 03    C+     	db	kcurpd-40h,2,'Q' and 1fh,'C' and 1fh
  D423    88 02 11 18    C+     	db	kcurdw-40h,2,'Q' and 1fh,'X' and 1fh
  D427    A0 02 11 02    C+     	db	pf0c-40h,2,'Q' and 1fh,'B' and 1fh
  D42B    A1 02 11 10    C+     	db	pf1c-40h,2,'Q' and 1fh,'P' and 1fh
  D42F    A2 02 11 19    C+     	db	pf2c-40h,2,'Q' and 1fh,'Y' and 1fh
  D433    A3 02 11 7F    C+     	db	pf3c-40h,2,'Q' and 1fh,7fh
  D437    A4 02 11 16    C+     	db	pf4c-40h,2,'Q' and 1fh,'V' and 1fh
  D43B    A5 02 11 0C    C+     	db	pf5c-40h,2,'Q' and 1fh,'L' and 1fh
  D43F    A8 02 11 17    C+     	db	pf8c-40h,2,'Q' and 1fh,'W' and 1fh
  D443    A9 02 11 1A    C+     	db	pf9c-40h,2,'Q' and 1fh,'Z' and 1fh
  D447    AB 02 11 02    C+     	db	pfbc-40h,2,'Q' and 1fh,'B' and 1fh
  D44B    AC 02 11 0B    C+     	db	pfcc-40h,2,'Q' and 1fh,'K' and 1fh
  D44F    AD 02 11 16    C+     	db	pfdc-40h,2,'Q' and 1fh,'V' and 1fh
  D453    FF             C      	db	0ffh		;Tab.ende
                         C      
                         C       IF costu
                         C       ENDIF
                                
                         C      	include BIOSCRT
                         C      ;************************************************************
                         C      ; Bildschirm-Ausgabe K7023, K7024, DSY5 u.ae.
                         C      ; - Fehlerkorrektur Steuerzeichen 18h (es wurden nur 79 Zeichen gel.)
                         C      ; - bei Tastenumdefinition auch chr(253) als Begrenzer (dbase)
                         C      ; - BAB2 als Standardvariante
                         C      ; - 17h (insline) und 19h (delline) eingefuehrt fuer TURBO-PASCAL-Editor
                         C      ; - Realisierung der SCP1715-Steuerzeichen 1b 5e xx (Feldattribut)
BIOS CP/A, Buerocomputer (A5120/30 u. ae.)	MACRO-80 V3.50	25-Oct-85	Page	1-35


                         C      ;   und 1b 5f xx (Spezialzeichen)
                         C      ;   Diese ESC-Folgen fueren beim Buerocomputer i.a. auf '^' (unzulaessig),
                         C      ;   ausser Feldattribute invers und hell (Reaktion wie Steuerz. 84..87)
                         C      ; - Einfuehrung Umlaut-Umkodierung fuer deutschen Zeichensatz
                         C      ;   einschl. SCP1715-Steuerzeichen 0Eh und 0Fh
                         C      ; - Einfuehrung MACROS "setbs" und "setram" zum Hin- und Rueckschalten
                         C      ;   des Bildschirmpuffers
                         C      ; 17.06.88
                         C      ; - Zugriff zum Bildschirm aus Interruptroutinen unterdrueckt
                         C      ; - Unterstuetzung von Karten mit Bit 7 invers (z.B. DSY5)
                         C      ; - Unterst. einer weiteren Variante fuer dtsch. Zeichens. auf 00..1f (ZSIBM)
                         C      ; 23.09.88
                         C      ; - Einfuehrung der Macros 'crton' und 'crtoff'
                         C      ; - di/ei waehrend Bildschirmumschaltung eingefuehrt
                         C      ;************************************************************
                         C      
                         C       if1
                         C       endif	;if1
                         C      
                         C       IF crtbfl eq 0
                         C       ELSE ;crtbfl ne 0
                         C        IF1
                         C        ENDIF
                         C       ENDIF
                         C      
                         C      
                         C      ;**************************************************************************
  D12C                   C      crtst	equ	dumst		;CRT:-Status immer ready
                         C      
  D454                   C      crto:
  D454    3E C3          C      	ld	a,0c3h		;jp ...
  D456    32 E536        C      	ld	(intcrt),a	;waehrend Bildaufbau Interrupt-Zugriff verb.
  D459    C5             C      	push	bc		;merken zeichen in c
  D45A    2A D038        C      	ld	hl,(crtcps)	;Kursorposition	
                         C      	setbs
  D45D    CB BE          C      	res	7,(hl)		;loeschen Kursor
                         C      	setram
  D45F    CD D491        C      	call	crtoti		;Zeichen ausgeben
                         C      ;				 HL danach auf neuer Kursorpositon
                         C      
                         C      ; Setzen Kursor auf (HL)
                         C      
  D462    22 D038        C      	ld	(crtcps),hl	;cursorposition
                         C      	setbs
  D465    3E 80          C      	ld	a,80h
  D466                   C      dcurs	equ	$-1
  D467    B6             C      	or	(hl)		;Kursor setzen
  D468    77             C      	ld	(hl),a
                         C      	setram
  D469    C1             C      crtonc:	pop	bc		;wiederherstellen c-reg
                         C      
  D46A    3E 21          C      	ld	a,021h		;ld hl,...
  D46C    32 E536        C      	ld	(intcrt),a	;wiederzulassen Zugriff aus Interruptrtn
                         C      
                         C       if (stpvar ne 0)  and (chdvar ne 0)
                         C      ; Hardcopy realisieren
                         C      
  D46F    3A 0040        C      	ld	a,(lampbf)
  D472    CB 7F          C      	bit	lmphcp,a	;Hardcopy?
  D474    C8             C      	ret	z		;nein
  D475    79             C      	ld	a,c
  D476    E6 7F          C      	and	7fh
BIOS CP/A, Buerocomputer (A5120/30 u. ae.)	MACRO-80 V3.50	25-Oct-85	Page	1-36


  D478    FE 20          C      	cp	20h		;Steuerzeichen?
  D47A    38 03          C      	jr	c,crtoe1	;ja
  D47C    FE 7F          C      	cp	7fh
  D47E    D8             C      	ret	c
  D47F    C5             C      crtoe1:	push	bc
  D480    21 D48D        C      	ld	hl,crtlc	;zugelassene Steuerzeichen
  D483    01 0004        C      	ld	bc,crtlcl
  D486    ED B1          C      	cpir			;erlaubt?
  D488    C1             C      	pop	bc
  D489    C8             C      	ret	z		;ja
  D48A    0E 5E          C      	ld	c,'^'		;sonst Spezialzeichen
  D48C    C9             C      	ret
                         C      
                         C      ; bei Hardcopy Bildschirm -> Drucker zugelassene Steuerzeichen
                         C      
  D48D    08 0A 0C 0D    C      crtlc:	db	08h,0ah,0ch,0dh
  0004                   C      crtlcl	equ	$-crtlc
                         C      
                         C       endif	;stpvar and chdvar
                         C      
                         C      
                         C      ;========================================================
                         C      ; interner Aufruf Bildschirmtreiber
                         C      ; i HL	Zeiger in Bildschirmpuffer auf Kursorposition
                         C      ; o HL	neuer Zeiger auf Kursorposition
                         C      ;========================================================
                         C      
  D491                   C      crtoti:
  D491    3E 00          C      	ld	a,0		;escape mode
  D492                   C      desc	equ	$-1
  D493    B7             C      	or	a
  D494    20 62          C      	jr	nz,crto04	;ja
  D496    79             C      crto02:	ld	a,c
  D497    32 D696        C      	ld	(crtcch),a	;merken fuer direkte Ausgabe
  D49A    FE 87          C      	cp	87h		;07h ist bell!, daher 87h<>07h
  D49C    28 39          C      	jr	z,crto09
  D49E    CB BF          C      	res	7,a		;sonst 1xxxxxxxB  = 0xxxxxxxB
  D4A0    FE 20          C      	cp	20h		;steuerzeichen?
  D4A2    38 33          C      	jr	c,crto09	;ja
  D4A4    FE 7F          C      	cp	7fh
  D4A6    30 2F          C      	jr	nc,crto09
                         C       IF umlaut
  D4A8    CD D665        C      	call	crtuml		;evtl. Umlaute umkodieren
                         C       ENDIF
  D4AB                   C      crtobs:
  D4AB    EB             C      	ex	de,hl
                         C       IF crt eq dsy5
                         C       ENDIF
  D4AC                   C      crtsbl:
                         C      	setbs
  D4AC    12             C      	ld	(de),a		;Zeichen in Bildschirmpuffer
                         C      	setram
  D4AD    21 0001        C      crtcur:	ld	hl,0-bsend1
  D4AE                   C      crtm01	equ	$-2
  D4B0    19             C      	add	hl,de		;bs voll?
  D4B1    EB             C      	ex	de,hl
  D4B2    23             C      	inc	hl	
  D4B3    D0             C      	ret	nc
  D4B4    11 FFC0        C      	ld	de,bsend1-bssp1+1
  D4B5                   C      crtm02	equ	$-2
  D4B7    D5             C      crto03:	push	de
  D4B8    21 FC40        C      	ld	hl,bsanf1+bssp1	;aufschieben
BIOS CP/A, Buerocomputer (A5120/30 u. ae.)	MACRO-80 V3.50	25-Oct-85	Page	1-37


  D4B9                   C      crtm03	equ	$-2
  D4BB    11 FC00        C      	ld	de,bsanf1
  D4BC                   C      crtm04	equ	$-2
  D4BE    01 03C0        C      	ld	bc,bsend1-bsanf1-bssp1+1
  D4BF                   C      crtm05	equ	$-2
                         C      	setbs
  D4C1    ED B0          C      	ldir
  D4C3    2B             C      	dec	hl
  D4C4    36 20          C      	ld	(hl),' '	;letzte zeile loeschen
  D4C6    11 FFFE        C      	ld	de,bsend1-1
  D4C7                   C      crtm06	equ	$-2
  D4C9    01 003F        C      	ld	bc,bssp1-1
  D4CA                   C      crtm07	equ	$-2
  D4CC    ED B8          C      	lddr
                         C      	setram
  D4CE    E1             C      	pop	hl
  D4CF    C9             C      	ret
                         C      ;------------------------------
                         C      ; 84/04,..,86/06,87
                         C      
                         C       IF crt eq k7024
  D4D0                   C      crto84:
  D4D0                   C      crto85:
  D4D0                   C      crto86:
  D4D0                   C      crto87:
  D4D0    3A D696        C      	ld	a,(crtcch)	;Zeichen direkt ausgeben
  D4D3    CB BF          C      	res	7,a		;ohne Bit 7
  D4D5    18 D4          C      	jr	crtobs
                         C       ENDIF
                         C       IF crt eq dsy5
                         C       ENDIF
                         C      ;--------------------------------
                         C      
                         C      ; Behandlung Sonderzeichen
                         C      ;=========================
  D4D7    EB             C      crto09:	ex	de,hl		;test sonderzeichen
  D4D8    21 D697        C      	ld	hl,dszta
  D4DB    01 0018        C      	ld	bc,dsztal
  D4DE    ED B1          C      	cpir
  D4E0    28 05          C      	jr	z,crto11	;gefunden
  D4E2    0E 5E          C      	ld	c,'^'		;nicht-Sonderz. anzeigen
  D4E4    EB             C      	ex	de,hl
  D4E5    18 AF          C      	jr	crto02		;falls nicht gefunden
  D4E7    21 D6DE        C      crto11:	ld	hl,dswe-1
  D4EA    B7             C      	or	a
  D4EB    ED 42          C      	sbc	hl,bc
  D4ED    ED 42          C      	sbc	hl,bc
  D4EF    46             C      	ld	b,(hl)
  D4F0    2B             C      	dec	hl
  D4F1    4E             C      	ld	c,(hl)		;bc:=ansprungadresse
  D4F2    C5             C      	push	bc
  D4F3    6B             C      	ld	l,e
  D4F4    62             C      	ld	h,d		;bs adresse
  D4F5    3E 20          C      	ld	a,' '		;fuer BS-loeschen
  D4F7    C9             C      crtnop:	ret			;ansprung sonderzeichen
                         C      ;-----------------------------
                         C      
                         C      ; Behandlung Zeichen innerhalb Escape-Folgen
                         C      ;===========================================
  D4F8                   C      crto04:	if	adm3a
                         C      	endif
                         C      
BIOS CP/A, Buerocomputer (A5120/30 u. ae.)	MACRO-80 V3.50	25-Oct-85	Page	1-38


                         C      	if	costu
                         C      	endif
                         C      
  D4F8    3D             C      	dec	a
  D4F9    32 D492        C      	ld	(desc),a	;naechstes escape flag setzen
                         C       IF escpc
  D4FC    79             C      	ld	a,c		;Zeichen mit offset nach A
                         C       ENDIF
  D4FD    CB B9          C      	res	7,c		;loeschen evtl. offset 80h
  D4FF    28 1B          C      	jr	z,crto07	;letztes Zeichen ESC-Folge
                         C      
                         C      ; vorletztes Zeichen ESC-Folge
                         C      ;-----------------------------
                         C       IF escpc
  D501    D6 5E          C      	sub	5eh		;Feldattribut oder Sonderzeichen?
  D503    32 D51D        C      	ld	(crtffl),a	;wenn ja, so 00 bzw. 01
  D506    C8             C      	ret	z		;1b 5e xx
  D507    3D             C      	dec	a
  D508    C8             C      	ret	z		;1b 5f xx 
                         C       ENDIF
                         C      ;Positionierung Zeile
                         C       	if	adm3a
                         C      	endif
                         C      
  D509    3E 0F          C      	ld	a,bszl1-1	;letzte zeile
  D50A                   C      crtm08	equ	$-1
  D50B    B9             C      	cp	c		;nach letzter zeile?
  D50C    38 01          C      	jr	c,crto05	;ja
  D50E    79             C      	ld	a,c		;sonst auf gewuenschte zeile
  D50F    21 FC00        C      crto05:	ld	hl,bsanf1	;zeile adressieren
  D510                   C      crtm09	equ	$-2
  D512    B7             C      	or	a
  D513    C8             C      	ret	z
  D514    11 0040        C      	ld	de,bssp1
  D515                   C      crtm10	equ	$-2
  D517    47             C      	ld	b,a
  D518    19             C      crto06:	add	hl,de
  D519    10 FD          C      	djnz	crto06		;zeile finden
  D51B    C9             C      	ret
                         C      
  D51C                   C      crto07:
                         C      ; letztes Zeichen ESC-Folge
                         C      ;--------------------------
                         C       IF escpc
  D51C    06 FF          C      	ld	b,0ffh
  D51D                   C      crtffl	equ	$-1		;auf 00 bei "1b 5e xx"; auf 01 bei "1b 5f xx"
  D51E    10 05          C      	djnz	crtnsp		;nicht 1b 5f xx
  D520    3E 5E          C      crtfa3:	ld	a,'^'		;Spezialzeichen nicht realisierbar
  D522    C3 D4AB        C      	jp	 crtobs
  D525                   C      crtnsp:
  D525    04             C      	inc	b		;1b 5e xx?
  D526    20 17          C      	jr	nz,crtnfa	;nein
  D528    CB 67          C      	bit	4,a		;invers?
  D52A    28 02          C      	jr	z,crtfa1	;nein
  D52C    CB C0          C      	set	0,b
  D52E    CB 47          C      crtfa1:	bit	0,a		;hell?
  D530    28 02          C      	jr	z,crtfa2	;nein
  D532    CB C8          C      	set	1,b
  D534    E6 2E          C      crtfa2:	and	00101110b	;wurden noch andere Funktionen verlangt?
  D536    20 E8          C      	jr	nz,crtfa3	;ja, kann die Hardware nicht
  D538    3E 84          C      	ld	a,84h
  D53A    B0             C      	or	b		;Steuerzeichen auf 84..87 abbilden
BIOS CP/A, Buerocomputer (A5120/30 u. ae.)	MACRO-80 V3.50	25-Oct-85	Page	1-39


  D53B    4F             C      	ld	c,a
  D53C    C3 D496        C      	jp	crto02		;umgewandeltes Steuerzeichen auswerten
  D53F                   C      crtnfa:
                         C       ENDIF
                         C      ; Positionierung Spalte
                         C      	if	adm3a
                         C      	endif
                         C      
  D53F    3E 3F          C      	ld	a,bssp1-1	;spalte setzen
  D540                   C      crtm11	equ	$-1
  D541    B9             C      	cp	c		;0 .. letzte spalte
  D542    30 01          C      	jr	nc,crto08	;ja
  D544    4F             C      	ld	c,a		;sonst auf letzte spalte
  D545    06 00          C      crto08:	ld	b,0
  D547    09             C      	add	hl,bc
  D548    C9             C      	ret
                         C      
                         C      	if	adm3a
                         C      	endif
                         C      ;----------------------------
                         C      
                         C      ; ...Realisierung Sonderzeichen...
                         C      ;=================================
  D549    01 0040        C      crtcr:	ld	bc,bssp1
  D54A                   C      crtm12	equ	$-2
  D54C    21 FFFF        C      	ld	hl,bsend1
  D54D                   C      crtm13	equ	$-2
  D54F    B7             C      crto12:	or	a
  D550    ED 42          C      	sbc	hl,bc		;suchen,bis hl < (crtcps)
  D552    E5             C      	push	hl
  D553    ED 52          C      	sbc	hl,de
  D555    E1             C      	pop	hl
  D556    30 F7          C      	jr	nc,crto12	;zeilenanf. noch nicht gefunden
  D558    23             C      	inc	hl
  D559    C9             C      	ret
                         C      ;-----------------------------
  D55A    21 FFBF        C      crtlf:	ld	hl,bsend1-bssp1
  D55B                   C      crtm14	equ	$-2
  D55D    ED 52          C      	sbc	hl,de	;bs ende (anfang letzte zeile)
  D55F    DA D4B7        C      	jp	c,crto03	;aufschieben
  D562    21 0040        C      	ld	hl,bssp1
  D563                   C      crtm15	equ	$-2
  D565    19             C      	add	hl,de		;naechste zeile
  D566    C9             C      	ret
                         C      ;-----------------------------
  D567                   C      crtdel:	setbs
  D567    12             C      	ld	(de),a
                         C      	setram
  D568    21 FC00        C      crtcl:	ld	hl,bsanf1	;cursor zurueck
  D569                   C      crtm16	equ	$-2
  D56B    ED 52          C      	sbc	hl,de
  D56D    EB             C      	ex	de,hl
  D56E    C8             C      	ret	z
  D56F    2B             C      	dec	hl
  D570    C9             C      	ret
                         C      ;----------------------------
  D571    11 FC00        C      crtbsl:	ld	de,bsanf1	;bs loeschen + home
  D572                   C      crtm17	equ	$-2
  D574    21 FFFF        C      crtbsr:	ld	hl,bsend1
  D575                   C      crtm18	equ	$-2
  D577    ED 52          C      	sbc	hl,de
  D579    EB             C      	ex	de,hl
BIOS CP/A, Buerocomputer (A5120/30 u. ae.)	MACRO-80 V3.50	25-Oct-85	Page	1-40


                         C      	setbs
  D57A    77             C      	ld	(hl),a
                         C      	setram
  D57B    C8             C      	ret	z
  D57C    E5             C      	push	hl
  D57D    42             C      	ld	b,d	
  D57E    4B             C      	ld	c,e
  D57F    54             C      	ld	d,h
  D580    5D             C      	ld	e,l
  D581    13             C      	inc	de
                         C      	setbs
  D582    ED B0          C      	ldir
                         C      	setram
  D584    E1             C      	pop	hl
  D585    C9             C        	ret
                         C      ;----------------------------
  D586    21 FC00        C      crthom:	ld	hl,bsanf1	;home
  D587                   C      crtm19	equ	$-2
  D589    C9             C      	ret
                         C      ;----------------------------
  D58A                   C      crtcup:
                         C      	if	adm3a
                         C      	endif
                         C      
  D58A    21 FC3F        C      	ld	hl,bsanf1+bssp1-1  ;eine zeile hoch
  D58B                   C      crtm20	equ	$-2
  D58D    ED 52          C      	sbc	hl,de		;in oberster zeile?
  D58F    EB             C      	ex	de,hl
  D590    D0             C      	ret	nc		;nicht ausfuehren
  D591    11 FFC0        C      	ld	de,0-bssp1
  D592                   C      crtm21	equ	$-2
  D594    19             C      	add	hl,de		;zeilenlaenge abziehen
  D595    C9             C      	ret
                         C      ;-----------------------------
  D596    CD D549        C      crtzl:	call	crtcr		;zeile loeschen
  D599    EB             C      	ex	de,hl
  D59A    D5             C      crtzlr:	push	de		;restzeile loeschen
  D59B    CD D549        C      	call	crtcr
  D59E    09             C      	add	hl,bc
  D59F    B7             C      	or	a
  D5A0    ED 52          C      	sbc	hl,de		;zeilenrest
                         C      	setbs
  D5A2    12             C      crto13:	ld	(de),a
  D5A3    13             C      	inc	de
  D5A4    2D             C      	dec	l
  D5A5    20 FB          C      	jr	nz,crto13
                         C      	setram
  D5A7    E1             C      	pop	hl
  D5A8    C9             C      	ret
                         C      ;-----------------------------
                         C       IF inslin
  D5A9    CD D549        C      crtinl:	call	crtcr		;Insert line
  D5AC    E5             C      	push	hl		;hl auf Zeilenanfang
  D5AD    11 FF30        C      	ld	de,bsend2-bssp2+1 ;Anfang letzte Zeile
  D5AE                   C      crtm44	equ	$-2
  D5B0    EB             C      	ex	de,hl
  D5B1    B7             C      	or	a
  D5B2    ED 52          C      	sbc	hl,de		;Laenge
  D5B4    28 0A          C      	jr	z,crtil1	;letzte Zeile
  D5B6    44             C      	ld	b,h
  D5B7    4D             C      	ld	c,l
  D5B8    11 FF7F        C      	ld	de,bsend2	;Ziel
BIOS CP/A, Buerocomputer (A5120/30 u. ae.)	MACRO-80 V3.50	25-Oct-85	Page	1-41


  D5B9                   C      crtm45	equ	$-2
  D5BB    21 FF2F        C      	ld	hl,bsend2-bssp2	;Quelle
  D5BC                   C      crtm46	equ	$-2
                         C      	setbs
  D5BE    ED B8          C      	lddr			;eine Zeile nach unten schieben
                         C      	setram
  D5C0    D1             C      crtil1:	pop	de
  D5C1    62             C      	ld	h,d
  D5C2    6B             C      	ld	l,e
  D5C3    18 D5          C      	jr	crtzlr		;freigewordene Zeile loeschen
                         C      ;-----------------------------
  D5C5    CD D549        C      crtdll:	call	crtcr		;Delete Line
  D5C8    E5             C      	push	hl
  D5C9    11 FF30        C      	ld	de,bsend2-bssp2+1	;Anfang letzte Zeile
  D5CA                   C      crtm47	equ	$-2
  D5CC    EB             C      	ex	de,hl
  D5CD    B7             C      	or	a
  D5CE    ED 52          C      	sbc	hl,de		;Laenge
  D5D0    28 08          C      	jr	z,crtdl1	;letzte Zeile
  D5D2    E3             C      	ex	(sp),hl
  D5D3    54             C      	ld	d,h
  D5D4    5D             C      	ld	e,l		;de auf Ziel (Zeilenanfang)
  D5D5    09             C      	add	hl,bc		;hl auf Quelle
  D5D6    C1             C      	pop	bc
  D5D7    D5             C      	push	de
                         C      	setbs
  D5D8    ED B0          C      	ldir			;eine Zeile nach oben schieben
                         C      	setram
  D5DA    21 FF30        C      crtdl1:	ld	hl,bsend2-bssp2+1
  D5DB                   C      crtm48	equ	$-2
  D5DD    54             C      	ld	d,h
  D5DE    5D             C      	ld	e,l
  D5DF    CD D59A        C      	call	crtzlr		;letzte Zeile loeschen
  D5E2    E1             C      	pop	hl
  D5E3    C9             C      	ret
                         C      ;-----------------------------
                         C       ENDIF	;inslin
  D5E4    3E 02          C      crtesc:	ld	a,2		;escape flag setzen
  D5E6    32 D492        C      	ld	(desc),a
                         C      
                         C      	if	costu or adm3a
                         C      	endif
                         C      
  D5E9    C9             C      	ret
                         C      ;-----------------------------
  D5EA    3E 80          C      crtcrt:	ld	a,80h		;cursor an
  D5EC    18 01          C      	jr	crto14
                         C      ;-----------------------------
  D5EE    AF             C      crtcof:	xor	a		;cursor aus
  D5EF    32 D466        C      crto14:	ld	(dcurs),a
  D5F2    C9             C      	ret
                         C      ;-----------------------------
                         C      ; Realisierung 07h
                         C      ; Achtung! Diese Routine wird aus Interruptroutine aufgerufen!
  D5F3    CD D5F6        C      crtclk:	call	crtcl1		;Fehlerlampe umschalten
                         C      
  D5F6    06 19          C      crtcl1:	ld	b,25		;0.25 sec warten
  D5F8    CD E6C5        C      	call	wait10
                         C      				;Fehlerlampe wieder zurueck
                         C      ; Fehlerlampe umschalten
                         C      ; Reg. A, HL bleiben erhalten
  D5FB    F5             C      swilmp:	push	af
BIOS CP/A, Buerocomputer (A5120/30 u. ae.)	MACRO-80 V3.50	25-Oct-85	Page	1-42


  D5FC    E5             C      	push	hl
  D5FD    21 0040        C      	ld	hl,lampbf
  D600    7E             C      	ld	a,(hl)
  D601    EE 40          C      	xor	1 shl lmperr
  D603    77             C      	ld	(hl),a
  D604    CD D2B0        C      	call	lampen
  D607    E1             C      	pop	hl
  D608    F1             C      	pop	af
  D609    C9             C      	ret
                         C      ;-----------------------------
                         C       IF umlaut
                         C      ; Umschalten auf 2. Zeichensatz
  D60A    E5             C      crt2zs:	push	hl
  D60B    21 D03D        C      	ld	hl,synflg
  D60E    CB D6          C      	set	umlflg,(hl)
  D610    E1             C      	pop	hl
  D611    C9             C      	ret
                         C      ; Umschalten auf 1. Zeichensatz
  D612    E5             C      crt1zs:	push	hl
  D613    21 D03D        C      	ld	hl,synflg
  D616    CB 96          C      	res	umlflg,(hl)
  D618    E1             C      	pop	hl
  D619    C9             C      	ret
                         C       ENDIF
                         C      ;-----------------------------
                         C      
                         C       IF stpvar
                         C       IF chdvar
                         C      ;Hardcopy Bildschirm -> LST
  D61A    E5             C      crthrd:	push	hl
  D61B    21 FC00        C      	ld	hl,bsanf1
  D61C                   C      crtm22	equ	$-2
  D61E    0E 11          C      	ld	c,bszl1+1
  D61F                   C      crtm23	equ	$-1
  D620    18 30          C      	jr	crthd3		;zu Beginn neue Zeile
  D622    06 40          C      crthd1:	ld	b,bssp1
  D623                   C      crtm24	equ	$-1
  D624    C5             C      crthd2:	push	bc
                         C      	setbs
  D625    7E             C      	ld	a,(hl)
                         C      	setram
  D626    23             C      	inc	hl
  D627    E5             C      	push	hl
  D628    E6 7F          C      	and	7fh
  D62A    FE 20          C      	cp	20h		;BS-Steuerzeichen?
  D62C    30 1C          C      	jr	nc,crthd4	;nein
                         C       IF umlaut
  D62E    21 D03D        C      	ld	hl,synflg	;Schalterbyte 
  D631    CB 56          C      	bit	umlflg,(hl)	;Umlaute anzeigen ?
  D633    28 13          C      	jr	z,cnuml1	;nein!
  D635    21 D68B        C      	ld	hl,umltb2	;Umlautcodierung ?
  D638    01 000B        C      	ld	bc,umllen
  D63B    ED B1          C      	cpir
  D63D    20 09          C      	jr	nz,cnuml1	;nein !
  D63F    01 000C        C      	ld	bc,umllen+1	;sonst rueckkodieren
  D642    B7             C      	or	a
  D643    ED 42          C      	sbc	hl,bc
  D645    7E             C      	ld	a,(hl)		;rueckkodiertes Zeichen
  D646    18 02          C      	jr	crthd4
  D648                   C      cnuml1:
                         C       ENDIF
  D648    3E 5E          C      	ld	a,'^'		;sonst Sonderzeichen
BIOS CP/A, Buerocomputer (A5120/30 u. ae.)	MACRO-80 V3.50	25-Oct-85	Page	1-43


  D64A    4F             C      crthd4:	ld	c,a
  D64B    CD D00F        C      	call	BIOS0F		;LIST
  D64E    E1             C      	pop	hl
  D64F    C1             C      	pop	bc
  D650    10 D2          C      	djnz	crthd2		;bis Zeilenende
  D652    C5             C      crthd3:	push	bc
  D653    E5             C      	push	hl
  D654    0E 0D          C      	ld	c,0dh
  D656    CD D00F        C      	call	BIOS0F
  D659    0E 0A          C      	ld	c,0ah
  D65B    CD D00F        C      	call	BIOS0F
  D65E    E1             C      	pop	hl
  D65F    C1             C      	pop	bc
  D660    0D             C      	dec	c		;Bildschirmende?
  D661    20 BF          C      	jr	nz,crthd1	;nein
  D663    E1             C      	pop	hl
  D664    C9             C      	ret
                         C       ENDIF
                         C       ENDIF	;stpvar
                         C      
                         C       IF umlaut
                         C      ; Umlaute umcodieren fuer Anzeige auf BAB1/BAB2 (Sonder-PROM)
  D665                   C      crtuml:	
  D665    E5             C      	push 	hl		;retten wegen evtl. ext. Verwendung
  D666    C5             C      	push 	bc
  D667    21 D03D        C      	ld	hl,synflg	;Schalterbyte
  D66A    CB 56          C      	bit	umlflg,(hl)	;Umlaute anzeigen ?
  D66C    28 0F          C      	jr	z,umlcn1	;nein !
  D66E    21 D680        C      	ld 	hl,umltb1
  D671    01 000B        C      	ld 	bc,umllen
  D674    ED B1          C      	cpir			;in Tabelle suchen
  D676    20 05          C      	jr	nz,umlcn1	;nicht gefunden
  D678    01 000A        C      	ld	bc,umllen-1	;wegen cpir
  D67B    09             C      	add 	hl,bc
  D67C    7E             C      	ld	a,(hl)		;umcodieren
  D67D    C1             C      umlcn1:	pop	bc
  D67E    E1             C      	pop	hl
  D67F    C9             C      	ret
                         C      
                         C      ;------------------------------
                         C      ; Umcodiertabelle fuer Umlautumcodierung
                         C       IF zsuml ;auf freie 7023/24-Steuerzeichen (IH Mittweida, Koll. Geiler)
                         C      ;		Ae  Oe  Ue  ae  oe  ue  sz  **2 **3 Par my
  D680    5B 5C 5D 7B    C      umltb1:db	5bh,5ch,5dh,7bh,7ch,7dh,7eh,3ch,3eh,40h,5eh
  D684    7C 7D 7E 3C    C      
  D688    3E 40 5E       C      
  D68B    15 16 17 1C    C      umltb2:db	15h,16h,17h,1ch,1dh,1eh,1fh,10h,12h,14h,18h
  D68F    1D 1E 1F 10    C      
  D693    12 14 18       C      
  000B                   C      umllen	equ	umltb2-umltb1
                         C       ENDIF
                         C       IF zsibm ;auf 00..1f erweiterter IBM-Zeichensatz
                         C       ENDIF	
                         C       ENDIF	
                         C      
                         C      ; Arbeitszellen
                         C      ;==============
                         C      
  D696    00             C      crtcch:	db	0		;direkt auszugebendes BS-Zeichen
                         C       if crt eq dsy5
                         C       endif
                         C      
BIOS CP/A, Buerocomputer (A5120/30 u. ae.)	MACRO-80 V3.50	25-Oct-85	Page	1-44


                         C      ; Tabelle der Sonderzeichen, SCP kompatibel!
                         C      ;==========================================
                         C      
  D697                   C      dszta:	
  D697    00             C      	db	00h	;nop
  D698    01             C      	db	01h	;home
  D699    02             C      	db	02h	;(auch 82h) cursor an
  D69A    03             C      	db	03h	;(auch 83h) cursor aus
  D69B    04             C      	db	04h	;(auch 84h) normal, nicht inv.
  D69C    05             C      	db	05h	;(auch 85h) normal,       inv.
  D69D    06             C      	db	06h	;(auch 86h) hell  , nicht inv.
                         C      ;			 (nur  87h) hell  ,       inv.
  D69E    07             C      	db	07h	;bell (akustisches zeichen)
  D69F    08             C      	db	08h	;cursor zurueck
  D6A0    0A             C      	db	0ah	;LF
  D6A1    0C             C      	db	0ch	;bs loeschen, cursor links oben
  D6A2    0D             C      	db	0dh	;CR
                         C       if umlaut
  D6A3    0E             C      	db	0eh	;umschalten auf 2. Zeichensatz
  D6A4    0F             C      	db	0fh	;umschalten auf 1. Zeichensatz
                         C       endif
  D6A5    14             C      	db	14h	;rest bs loeschen
  D6A6    15             C      	db	15h	;cursor vorwaerts
  D6A7    16             C      	db	16h	;rest der zeile loeschen
                         C       IF inslin
  D6A8    17             C      	db	17h	;Insert Line
                         C       ENDIF
  D6A9    18             C      	db	18h	;zeile loeschen, cursor an zeilanf.
                         C       IF inslin
  D6AA    19             C      	db	19h	;Delete Line
                         C       ENDIF
  D6AB    1A             C      	db	1ah	;eine zeile hoch
                         C      			;bei ADM3a wie 0ch
  D6AC    1B             C      	db	1bh	;escape
                         C      ;		1b zeile+80h spalte+80h		Kursor posit. SCP
                         C      ;		1b zeile+00h spalte+00h		geht auch bei CP/A
                         C      ;		1b '='/'Y' zeile+20h spalte+20h	Kursor posit. bei ADM3A
                         C      ;		1b 5e xx	Feldattribut setzen (SCP1715 fuer 8275-Contr.)
                         C      ;			mit xx= 01urggbh
                         C      ;				  u		unterstreichen,
                         C      ;				   r		invers,
                         C      ;				    gg		Zeichengenerator-Umschaltung,
                         C      ;				      b		blinken,
                         C      ;				       h	heller 
                         C      ;		1b 5f xx	Spezialzeichen setzen (SCP1715 fuer 8275)
                         C      ;			mit xx= 01ssssbh
                         C      ;				  ssss		Zeichencode (1100 Sonderfkt)
                         C      ;				      b		blinken des Sonderzeichens
                         C      ;				       h	heller des Sonderzeichens
                         C      	if	adm3a
                         C      	endif
                         C       if crt eq dsy5
                         C       endif
  D6AD    7F             C      	db	7fh	;delete
  D6AE    87             C      	db	87h	;(nicht 07h) hell  ,      inv.
  0018                   C       dsztal	equ	$-dszta	;Tabellenlaenge
                         C      
                         C      ; Reaktionsroutinen fuer Sonderzeichen
                         C      
  D6AF    D4F7           C      	dw	crtnop	;00
  D6B1    D586           C      	dw	crthom	;01
  D6B3    D5EA           C      	dw	crtcrt	;02/82
BIOS CP/A, Buerocomputer (A5120/30 u. ae.)	MACRO-80 V3.50	25-Oct-85	Page	1-45


  D6B5    D5EE           C      	dw	crtcof	;03/83
  D6B7    D4D0           C      	dw	crto84	;04/84
  D6B9    D4D0           C      	dw	crto85	;05/85
  D6BB    D4D0           C      	dw	crto86	;06/86
  D6BD    D5F3           C      	dw	crtclk	;07
  D6BF    D568           C      	dw	crtcl	;08
  D6C1    D55A           C      	dw	crtlf	;0A
  D6C3    D571           C      	dw	crtbsl	;0C
  D6C5    D549           C      	dw	crtcr	;0D
                         C       if umlaut
  D6C7    D60A           C      	dw	crt2zs	;0E
  D6C9    D612           C      	dw	crt1zs	;0F
                         C       endif
  D6CB    D574           C      	dw	crtbsr	;14
  D6CD    D4AD           C      	dw	crtcur	;15
  D6CF    D59A           C      	dw	crtzlr	;16
                         C       IF inslin
  D6D1    D5A9           C      	dw	crtinl	;17
                         C       ENDIF
  D6D3    D596           C      	dw	crtzl	;18
                         C       IF inslin
  D6D5    D5C5           C      	dw	crtdll	;19
                         C       ENDIF
  D6D7    D58A           C      	dw	crtcup	;1A
  D6D9    D5E4           C      	dw	crtesc	;1B
                         C      	if	adm3a
                         C      	endif
                         C       if crt eq dsy5
                         C       endif
  D6DB    D567           C      	dw	crtdel	;7F
  D6DD    D4D0           C      	dw	crto87	;87
  D6DF                   C      dswe 	equ	$	;tabellenende
                         C      
                                
                                 IF chdvar
                         C      	include BIOSCHD
                         C      ;**************************************************************
                         C      ;	zeichenorientierte Geraete
                         C      ; Aenderungen:
                         C      ; Fehlerkorrektur UC1:-Treiber
                         C      ; - getrennter Status Sender/Empf.
                         C      ; - Verwaltung des DTR-Bits auf Empf.seite
                         C      ; - UC1: arbeitet empfangsseitig interruptgetrieben
                         C      ; - Einfuehrung eines UC1:-Puffers als Verlaengerung des SIO-Puffers
                         C      ; - bei E/A-Fehler (Drucker nicht bereit) warten auf Bestaetigung,
                         C      ;   moegliche Reaktion ^C, I(gnore device) oder R(etry)
                         C      ; 29.09.88
                         C      ; - beide Bahnen parallel wird zurueckgesetzt, wenn linke oder rechte
                         C      ;   Bahn ausgewaehlt wird
                         C      ; 04.04.89
                         C      ; - zeichenweise Geraete werden bei Warmstart nicht neu initialisiert,
                         C      ;   nur beim Betaetigen der Taste "Synchronisieren"
                         C      ; 06.07.89
                         C      ; - bei DTR mit/ohne Warten auf Senderegister leer
                         C      ; 15.09.89
                         C      ; - wegen Drucker 1152.257 TimeOut auf nicht-Bereitschaft von 30 s auf 2 min
                         C      ;**************************************************************
                         C      
                         C       if1
                         C       endif ; if1
                         C      
                         C      
BIOS CP/A, Buerocomputer (A5120/30 u. ae.)	MACRO-80 V3.50	25-Oct-85	Page	1-46


                         C      ; Ausgabe
                         C      ;~~~~~~~~
                         C      ; TTY:
                         C      ;=====
                         C       if	iobtty
  D6DF    DD 21 D77D     C      ttyo:	ld	ix,lsttty
  D6E3    18 0C          C      	jr	lsto
                         C       endif
                         C      
                         C      ; LPT:
                         C      ;=====
                         C       if	ioblpt
  D6E5    DD 21 D79A     C      lpto:	ld	ix,lstlpt
  D6E9    18 06          C      	jr	lsto
                         C       endif
                         C      
                         C      ; UC1:
                         C      ;=====
                         C       if	iobuc1
  D6EB    DD 21 D7B7     C      uc1o:	ld	ix,lstuc1
  D6EF    18 00          C      	jr	lstoch		;nicht 2 Bahn Zeichen interpr.
                         C       endif
                         C      
  D6F1                   C      lsto:
  D6F1                   C      listi:	;interner Aufruf lsto mit gestelltem IX
                         C       IF l2bahn
                         C       ENDIF
                         C      
                         C      ; Einzelzeichenausgabe Reg. C
                         C      ;-----------------------------
  D6F1                   C      lstoch:
  D6F1    DD CB 00 4E    C      	bit	1,(ix+ltpst)	;senderseitig blockiert?
  D6F5    C0             C      	ret	nz		;ja, Ausgabe ignorieren
  D6F6    C5             C      	push	bc		;retten Zeichen in C
  D6F7    0E 78          C      loutws:	ld	c,120		;max. Wartezeit in Sek. auf ready
  D6F9    06 64          C      loutw1:	ld	b,100		;100*10ms warten
  D6FB    C5             C      loutwt:	push	bc
  D6FC    CD D761        C      	CALL	lststi		;Status holen
  D6FF    20 16          C      	jr	nz,loutwf	;ist frei
  D701    06 01          C      	ld	b,1
  D703    CD E6C5        C      	call	wait10		;Warten 10 ms
  D706    C1             C      	pop	bc
  D707    10 F2          C      	djnz	loutwt		;weiter warten?
  D709    0D             C      	dec	c		;weitere Sekunde warten?
  D70A    20 ED          C      	jr	nz,loutw1	;ja
                         C       IF errvar
  D70C    CD D721        C      	call	spioer		;Fehlermeldung
  D70F    20 E6          C      	jr	nz,loutws	;Wiederholung
                         C       ENDIF
  D711    C1             C      	pop	bc
  D712    DD CB 00 CE    C      	set	1,(ix+ltpst)	;Sender blockiert
  D716    C9             C      	ret			;folgende Ausgaben werden ignor.
  D717    C1             C      loutwf:	pop	bc
  D718    C1             C      	pop	bc
  D719    79             C      	ld	a,c		;auszugebendes Zeichen nach A
  D71A    DD 6E 04       C      	ld	l,(ix+ltpo)
  D71D    DD 66 05       C      	ld	h,(ix+ltpo+1)
  D720    E9             C      	jp	(hl)
                         C      
                         C       IF errvar
  D721    DD 7E 02       C      spioer:	ld	a,(ix+ltpsd)	;Daten-Port-Adresse
  D724    11 D742        C      	ld	de,louttp
BIOS CP/A, Buerocomputer (A5120/30 u. ae.)	MACRO-80 V3.50	25-Oct-85	Page	1-47


  D727    CD E6D4        C      	call	mrecoa		;in Text
  D72A    21 D740        C      	ld	hl,loutto
  D72D    CD E6B9        C      	call	biosms
  D730    CD D194        C      	call	kbdbcl
  D733    CD E578        C      	call	conin
  D736    CB AF          C      	res	5,a
  D738    FE 03          C      	cp	'C' and 1fh	;^C ?
  D73A    CA 0000        C      	jp	z,0		;ja, Abbruch
  D73D    FE 49          C      	cp	'I'		;ret z: 'I'; ret nz: 'R'
  D73F    C9             C      	ret
                         C      
  D740                   C      loutto:
                         C       IF cpastz
                         C       ELSE
  D740    0D 0A          C      	db	0dh,0ah
                         C       ENDIF
  D742    58 58 68 20    C      louttp:	db	'XXh Fehler ^C/I/R'
  D746    46 65 68 6C    C      
  D74A    65 72 20 5E    C      
  D74E    43 2F 49 2F    C      
  D752    52             C      
                         C       IF cpastz
                         C       ELSE
  D753    07 00          C      	db	07h,0
                         C       ENDIF
                         C       ENDIF	;errvar
                         C      
                         C      ;-----------------------
                         C      
                         C      
                         C      ; Status
                         C      ;-------
                         C      ; o A=0, ret z	: Ausgabe besetzt
                         C      ; o A=ff,ret nz	: Ausgabe frei
                         C      
                         C      ; TTY:
                         C      ;=====
                         C       if	iobtty
  D755    DD 21 D77D     C      ttyst:	ld	ix,lsttty
  D759    18 06          C      	jr	lstst
                         C       endif
                         C      
                         C      ; LPT
                         C      ;====
                         C       if	ioblpt
  D75B    DD 21 D79A     C      lptst:	ld	ix,lstlpt
  D75F    18 00          C      	jr	lstst
                         C       endif
                         C      
                         C       if iobuc1
                         C       endif
                         C      
  D761                   C      lstst:
  D761                   C      lststi:	;interner Aufruf Sender-Status mit gestelltem IX
                         C      ; ret nz, A=FF fuer frei
                         C      ; ret z , A=00 fuer besetzt
                         C      
  D761    DD 6E 08       C      	ld	l,(ix+ltps)
  D764    DD 66 09       C      	ld	h,(ix+ltps+1)
  D767    E9             C      	jp	(hl)
                         C      
                         C      ;-----------------------------
BIOS CP/A, Buerocomputer (A5120/30 u. ae.)	MACRO-80 V3.50	25-Oct-85	Page	1-48


                         C      
                         C      ; Zeichenempfang
                         C      ;---------------
                         C      
  D12F                   C      ttyi	equ	dumi
  D12F                   C      lpti	equ	dumi
                         C       if iobuc1
                         C       endif
                         C      
                         C      ;-------------------------------
                         C      
                         C      ; Alle zeichenweisen Geraete neu synchronisieren
                         C      ;-----------------------------------------------
  D768                   C      lsynch:	
  D768    AF             C      	xor	a
                         C      	if	iobtty
  D769    32 D77D        C      	ld	(lsttty+ltpst),a
                         C      	endif
                         C      	if	ioblpt
  D76C    32 D79A        C      	ld	(lstlpt+ltpst),a
                         C      	endif
                         C      	if	iobuc1
  D76F    32 D7B7        C      	ld	(lstuc1+ltpst),a
                         C      	endif
  D772    C9             C      	ret
                         C      
                         C      ; Portprogrammierung
                         C      ;===================
                         C      ; i HL	^Steuertabelle, Laenge+1, Port, Bytes,...,1
  D773                   C      portpr:
  D773    46             C      portpz:	ld	b,(hl)		;Stringlaenge +1
  D774    23             C      	inc	hl
  D775    05             C      	dec	b		;Ende?
  D776    C8             C      	ret	z		;ja
  D777    4E             C      	ld	c,(hl)		;Port
  D778    23             C      	inc	hl
  D779    ED B3          C      	otir
  D77B    18 F6          C      	jr	portpz
                         C      
                         C      ;Steuertabellen fuer zeichenweise arbeitende Geraete
                         C      ;===================================================
                         C      
                         C      ;Struktur:
                         C      ; fester Teil
  0000                   C      ltpst	equ	0	;Status
                         C      			;Bit  7-4 Empf.,3-0 Sender  Bedeutung, wenn =1
                         C      			;	4	0 Empfseite init./ Senderseite init.
                         C      			;	5	1      -	 / Sender blockiert
                         C      			;	7	3 Sender gestoppt/ Sender hat frei gem.
  0001                   C      ltpdc	equ	1	;DC1/DC3: zuletzt empf. Zeichen (i.a. DCx)
                         C      			;DTR:	Statusmaske (Bit 5 Kanal A, Bit 3 Kanal B),
                         C      			;	Bit 7 =1 wenn kein Wait auf Senderegister leer
  0002                   C      ltpsd	equ	2	;Portadr. Daten
  0003                   C      ltpsc	equ	3	;Portadr. Kommando/Status (noch mal in ltpini!)
                         C      
  0004                   C      ltpo	equ	4	;Adresse der Senderoutine
  0006                   C      ltpi	equ	6	;Adresse der Empfangsroutine
  0008                   C      ltps	equ	8	;Adresse der Empfangsstatus-Routine
                         C      
                         C      ; Der folgende Teil existiert nur fuer SIO-Treiber
  000A                   C      ltpw5	equ	10	;WR5:
                         C      			;DTR/RTS Bit 7,1: 11 DTR; 00 DC1/DC3
BIOS CP/A, Buerocomputer (A5120/30 u. ae.)	MACRO-80 V3.50	25-Oct-85	Page	1-49


                         C      			;Bitanzahl/Byte Bit 6,5: 00 5;01 7;10 6;11 8
                         C      			;Bit 3 = 1 (Senderfreigabe)
                         C      			;Bit 0,2,4 = 0
                         C      ; Port-Initialisierung (fuer alle Treiber)
  000B                   C      ltpini	equ	11	;jeweils Byteanzahl+1; Port; Bytefolge
                         C      			;variabel lang
                         C      
                         C      			;fuer SIO-Treiber einige Erlaeuterungen:
  000C                   C      ltpcs	equ	12	;Port CTC-Sendetakt
                         C      			;Vorteiler (37h Vorteiler 256, 17h Vorteiler 16)
                         C      			;Baudrate (1=9600,2=4800,..64=150,96=100,128=75)
                         C      			;evtl. nochmal fuer Port CTC-Empf.takt
                         C      			;WR4:
                         C      			;Paritaet  in Bit 1,0: 00 ohne, 01 unger., 11 ger.
                         C      			;Stop-Bits in Bit 3,2: 01 1; 10 1,5; 11 2
                         C      			;Reserve   in Bit 5,4: 00 immer (nur fuer Synchr.mode)
                         C      			;Takt      in Bit 7,6: 00 *1, 01 *16, 10 *32, 11 *64
                         C      			;WR1:
                         C      			;Interrvektormod. in Bit 2: 0=keine Modifizierung
                         C      			;in Kanal B!! setzen
                         C      			;Empf.interr.mode Bit4,3: 00 kein Interrupt
                         C      			;			  01 bei erstem Zeichen
                         C      			;			  10 bei jedem mit Mod.
                         C      			;			  11 bei jedem ohne Mod.
                         C      			;WR3:
                         C      			;Empf.freigabe in Bit 0: 0=Empf. gesperrt; 1=Empf. frei
                         C      			;Bit 1-5:00000
                         C      			;Bitanzahl/Byte Bit 7,6:00 5;01 7;10 6;11 8
                         C      
                                 IF iobtty
  0713                          @lt	aset	iobtty
  0050                          @ld	aset	ttydat
  0051                          @ls	aset	ttysta
  000C                          @lcs	aset	ttycts
  000C                          @lcr	aset	ttyctr
  0000                          @wr1	aset	00000000b ;WR1: kein Interruptbetrieb
  0000                          @wsre	aset	00000000b ;Bit 7=0: Warten auf Senderegister leer
  D77D                   C      lsttty: include BIOSCPB
                         C      ;; 07.04.89
                         C      ;; 06.07.89
                         C      ;; - Einfuehrung Bit 7 in Statusmaske DTR - =1 kein Warten Senderegister leer
  D77D    00             C      	db	00H	;Status
                         C       IF ((@lt mod 10) eq 1) or ((@lt mod 10) eq 3)
                         C        IF (@lt mod 10) eq 1; DTR, Treiber 1
  0008                   C      @l	aset	@wsre xor 08h	;Statusmaske DTR-Abfrage ueber DCD im Kanal B
                         C        ENDIF
                         C        IF (@lt mod 10) eq 3; DTR, Treiber 3
                         C        ENDIF
  D77E    08             C      	db	@l	;DTR-Abfrage-Maske, Bit 7 Wait_Senderegister_leer-Flag
                         C       ENDIF
  D77F    50             C      	db	@ld	;Port fuer Daten
  D780    51             C      	DB	@ls	;Port fuer Status/Kommando
                         C       IF (@lt mod 10) lt 5	;;SIO ###########################################
                         C       if ((@lt mod 10) eq 0) or ((@lt mod 10) eq 1) or ((@lt mod 10) eq 3)
  D781    D7D4           C      	dw	cdsioo	;;Senden
  D783    D12F           C      	dw	cdsioi	;;Empfang
  D785    D7DA           C      	dw	cdsios	;;Empf.Status
                         C       endif
                         C       if (@lt mod 10) eq 2
                         C       endif
  0008                   C      @l	aset	00001000b	;;DC1/3, 5 Bit
                         C       if ((@lt mod 10) eq 1) or ((@lt mod 10) eq 3)
BIOS CP/A, Buerocomputer (A5120/30 u. ae.)	MACRO-80 V3.50	25-Oct-85	Page	1-50


  008A                   C      @l	aset	@l xor 10000010b	;;DTR
                         C       endif
                         C       if ((@lt mod 1000)/100) eq 6
                         C       endif
                         C       if ((@lt mod 1000)/100) eq 7
                         C       endif
                         C       if ((@lt mod 1000)/100) eq 8
  00EA                   C      @l	aset	@l xor 01100000b
                         C       endif
  D787    EA             C      	db	@l	;WR5
                         C      			;**Portinitialisierung**
                         C      ; CTC Sendetakt
  D788    03             C       	db	2+1
  D789    0C             C      	db	@lcs		;CTC Senden
                         C       IF (cpu eq c1715) and (@ld eq kbdsci)	;;PC1715, SIO durch Tastatur init.!!
                         C       ELSE
  D78A    17             C      	db	17h		;Vorteiler 16
                         C       ENDIF
  0001                   C      @l	aset	1 shl (((@lt mod 100)/10)-1)
                         C        if ((@lt mod 100)/10) eq 8
                         C        endif
                         C        if ((@lt mod 100)/10) eq 9
                         C        endif
  D78B    01             C      	db	@l		;Baudrate senden
                         C       IF (cpu eq c1715) and (@ld eq kbdsci)	;;PC1715, SIO durch Tastatur init.!!
                         C       ELSE
                         C      ;;; zum nachtraeglichen Patchen immer CTC Empf. generieren
                         C      ;;; auch wenn '@cls eq @clr'
                         C      ; CTC Empfangstakt
  D78C    03             C      	db	2+1
  D78D    0C             C      	db	@lcr		;CTC Empf.
  D78E    17             C      	db	17h		;Vorteiler 16
  D78F    01             C      	db	@l		;Baudrate empf.
                         C      ; SIO-Initialisierung
  D790    08             C      	db	7+1
  D791    51             C      	db	@ls		;SIO-Komm.
  D792    18             C      	db	18h		;WR0
  0044                   C      @l	aset	01000100b	;;Takt*16, ohne P., 1 Stbit, DTR
                         C       if (@lt mod 10) eq 2
                         C       endif
                         C        if @lt ge 10000
                         C        endif
                         C        if @lt ge 20000
                         C        endif
                         C        if ((@lt mod 10000)/1000) eq 2
                         C        endif
                         C        if ((@lt mod 10000)/1000) eq 3
                         C        endif
  D793    04 44          C      	db	4,@l		;WR4
  D795    01 00          C      	db	1,@wr1		;WR1
  0001                   C      @l	aset	00000001b	;;5 Bit, Empf.freigabe
                         C        if ((@lt mod 1000)/100) eq 6
                         C        endif
                         C        if ((@lt mod 1000)/100) eq 7
                         C        endif
                         C        if ((@lt mod 1000)/100) eq 8
  00C1                   C      @l	aset	@l xor 11000000b
                         C        endif
  D797    03 C1          C      	db	3,@l		;WR3
                         C        ENDIF	;;(cpu ne c1715) or (@ld ne kbdsci)
  D799    01             C      	db	1	;**Ende SIO-Initialisierung** 
                         C       ENDIF
BIOS CP/A, Buerocomputer (A5120/30 u. ae.)	MACRO-80 V3.50	25-Oct-85	Page	1-51


                         C      
                                 ENDIF
                                
                                 IF ioblpt
  2DBE                          @lt	aset	ioblpt
  005E                          @ld	aset	lptdat
  005F                          @ls	aset	lptsta
  0058                          @lcs	aset	lptcts
  0058                          @lcr	aset	lptctr
  0000                          @wr1	aset	00000000b ;WR1: kein Interruptbetrieb
  0000                          @wsre	aset	00000000b ;Bit 7=0: Warten auf Senderegister leer
  D79A                   C      lstlpt: include BIOSCPB
                         C      ;; 07.04.89
                         C      ;; 06.07.89
                         C      ;; - Einfuehrung Bit 7 in Statusmaske DTR - =1 kein Warten Senderegister leer
  D79A    00             C      	db	00H	;Status
                         C       IF ((@lt mod 10) eq 1) or ((@lt mod 10) eq 3)
                         C       ELSE ;DC1/3 oder PIO
  D79B    00             C      	db	00H	;zuletzt empfangenes Zeichen
                         C       ENDIF
  D79C    5E             C      	db	@ld	;Port fuer Daten
  D79D    5F             C      	DB	@ls	;Port fuer Status/Kommando
                         C       IF (@lt mod 10) lt 5	;;SIO ###########################################
                         C       if ((@lt mod 10) eq 0) or ((@lt mod 10) eq 1) or ((@lt mod 10) eq 3)
  D79E    D7D4           C      	dw	cdsioo	;;Senden
  D7A0    D12F           C      	dw	cdsioi	;;Empfang
  D7A2    D7DA           C      	dw	cdsios	;;Empf.Status
                         C       endif
                         C       if (@lt mod 10) eq 2
                         C       endif
  0008                   C      @l	aset	00001000b	;;DC1/3, 5 Bit
                         C       if ((@lt mod 10) eq 1) or ((@lt mod 10) eq 3)
                         C       endif
                         C       if ((@lt mod 1000)/100) eq 6
                         C       endif
                         C       if ((@lt mod 1000)/100) eq 7
  0028                   C      @l	aset	@l xor 00100000b
                         C       endif
                         C       if ((@lt mod 1000)/100) eq 8
                         C       endif
  D7A4    28             C      	db	@l	;WR5
                         C      			;**Portinitialisierung**
                         C      ; CTC Sendetakt
  D7A5    03             C       	db	2+1
  D7A6    58             C      	db	@lcs		;CTC Senden
                         C       IF (cpu eq c1715) and (@ld eq kbdsci)	;;PC1715, SIO durch Tastatur init.!!
                         C       ELSE
  D7A7    17             C      	db	17h		;Vorteiler 16
                         C       ENDIF
  0001                   C      @l	aset	1 shl (((@lt mod 100)/10)-1)
                         C        if ((@lt mod 100)/10) eq 8
                         C        endif
                         C        if ((@lt mod 100)/10) eq 9
                         C        endif
  D7A8    01             C      	db	@l		;Baudrate senden
                         C       IF (cpu eq c1715) and (@ld eq kbdsci)	;;PC1715, SIO durch Tastatur init.!!
                         C       ELSE
                         C      ;;; zum nachtraeglichen Patchen immer CTC Empf. generieren
                         C      ;;; auch wenn '@cls eq @clr'
                         C      ; CTC Empfangstakt
  D7A9    03             C      	db	2+1
  D7AA    58             C      	db	@lcr		;CTC Empf.
BIOS CP/A, Buerocomputer (A5120/30 u. ae.)	MACRO-80 V3.50	25-Oct-85	Page	1-52


  D7AB    17             C      	db	17h		;Vorteiler 16
  D7AC    01             C      	db	@l		;Baudrate empf.
                         C      ; SIO-Initialisierung
  D7AD    08             C      	db	7+1
  D7AE    5F             C      	db	@ls		;SIO-Komm.
  D7AF    18             C      	db	18h		;WR0
  0044                   C      @l	aset	01000100b	;;Takt*16, ohne P., 1 Stbit, DTR
                         C       if (@lt mod 10) eq 2
                         C       endif
                         C        if @lt ge 10000
  0045                   C      @l	aset	@l xor 00000001b	;;ung P.
                         C        endif
                         C        if @lt ge 20000
                         C        endif
                         C        if ((@lt mod 10000)/1000) eq 2
                         C        endif
                         C        if ((@lt mod 10000)/1000) eq 3
                         C        endif
  D7B0    04 45          C      	db	4,@l		;WR4
  D7B2    01 00          C      	db	1,@wr1		;WR1
  0001                   C      @l	aset	00000001b	;;5 Bit, Empf.freigabe
                         C        if ((@lt mod 1000)/100) eq 6
                         C        endif
                         C        if ((@lt mod 1000)/100) eq 7
  0041                   C      @l	aset	@l xor 01000000b
                         C        endif
                         C        if ((@lt mod 1000)/100) eq 8
                         C        endif
  D7B4    03 41          C      	db	3,@l		;WR3
                         C        ENDIF	;;(cpu ne c1715) or (@ld ne kbdsci)
  D7B6    01             C      	db	1	;**Ende SIO-Initialisierung** 
                         C       ENDIF
                         C      
                                 ENDIF
                                
                                 IF iobuc1
  0713                          @lt	aset	iobuc1
  0050                          @ld	aset	uc1dat
  0051                          @ls	aset	uc1sta
  000C                          @lcs	aset	uc1cts
  000C                          @lcr	aset	uc1ctr
  0014                          @wr1	aset	00010100b ;WR1: Empfangsinterr. bei jedem Char., Intv.modif.
  0080                          @wsre	aset	10000000b ;Bit 7=1: kein Warten auf Senderegister leer
  D7B7                   C      lstuc1: include BIOSCPB
                         C      ;; 07.04.89
                         C      ;; 06.07.89
                         C      ;; - Einfuehrung Bit 7 in Statusmaske DTR - =1 kein Warten Senderegister leer
  D7B7    00             C      	db	00H	;Status
                         C       IF ((@lt mod 10) eq 1) or ((@lt mod 10) eq 3)
                         C        IF (@lt mod 10) eq 1; DTR, Treiber 1
  0088                   C      @l	aset	@wsre xor 08h	;Statusmaske DTR-Abfrage ueber DCD im Kanal B
                         C        ENDIF
                         C        IF (@lt mod 10) eq 3; DTR, Treiber 3
                         C        ENDIF
  D7B8    88             C      	db	@l	;DTR-Abfrage-Maske, Bit 7 Wait_Senderegister_leer-Flag
                         C       ENDIF
  D7B9    50             C      	db	@ld	;Port fuer Daten
  D7BA    51             C      	DB	@ls	;Port fuer Status/Kommando
                         C       IF (@lt mod 10) lt 5	;;SIO ###########################################
                         C       if ((@lt mod 10) eq 0) or ((@lt mod 10) eq 1) or ((@lt mod 10) eq 3)
  D7BB    D7D4           C      	dw	cdsioo	;;Senden
  D7BD    D12F           C      	dw	cdsioi	;;Empfang
BIOS CP/A, Buerocomputer (A5120/30 u. ae.)	MACRO-80 V3.50	25-Oct-85	Page	1-53


  D7BF    D7DA           C      	dw	cdsios	;;Empf.Status
                         C       endif
                         C       if (@lt mod 10) eq 2
                         C       endif
  0008                   C      @l	aset	00001000b	;;DC1/3, 5 Bit
                         C       if ((@lt mod 10) eq 1) or ((@lt mod 10) eq 3)
  008A                   C      @l	aset	@l xor 10000010b	;;DTR
                         C       endif
                         C       if ((@lt mod 1000)/100) eq 6
                         C       endif
                         C       if ((@lt mod 1000)/100) eq 7
                         C       endif
                         C       if ((@lt mod 1000)/100) eq 8
  00EA                   C      @l	aset	@l xor 01100000b
                         C       endif
  D7C1    EA             C      	db	@l	;WR5
                         C      			;**Portinitialisierung**
                         C      ; CTC Sendetakt
  D7C2    03             C       	db	2+1
  D7C3    0C             C      	db	@lcs		;CTC Senden
                         C       IF (cpu eq c1715) and (@ld eq kbdsci)	;;PC1715, SIO durch Tastatur init.!!
                         C       ELSE
  D7C4    17             C      	db	17h		;Vorteiler 16
                         C       ENDIF
  0001                   C      @l	aset	1 shl (((@lt mod 100)/10)-1)
                         C        if ((@lt mod 100)/10) eq 8
                         C        endif
                         C        if ((@lt mod 100)/10) eq 9
                         C        endif
  D7C5    01             C      	db	@l		;Baudrate senden
                         C       IF (cpu eq c1715) and (@ld eq kbdsci)	;;PC1715, SIO durch Tastatur init.!!
                         C       ELSE
                         C      ;;; zum nachtraeglichen Patchen immer CTC Empf. generieren
                         C      ;;; auch wenn '@cls eq @clr'
                         C      ; CTC Empfangstakt
  D7C6    03             C      	db	2+1
  D7C7    0C             C      	db	@lcr		;CTC Empf.
  D7C8    17             C      	db	17h		;Vorteiler 16
  D7C9    01             C      	db	@l		;Baudrate empf.
                         C      ; SIO-Initialisierung
  D7CA    08             C      	db	7+1
  D7CB    51             C      	db	@ls		;SIO-Komm.
  D7CC    18             C      	db	18h		;WR0
  0044                   C      @l	aset	01000100b	;;Takt*16, ohne P., 1 Stbit, DTR
                         C       if (@lt mod 10) eq 2
                         C       endif
                         C        if @lt ge 10000
                         C        endif
                         C        if @lt ge 20000
                         C        endif
                         C        if ((@lt mod 10000)/1000) eq 2
                         C        endif
                         C        if ((@lt mod 10000)/1000) eq 3
                         C        endif
  D7CD    04 44          C      	db	4,@l		;WR4
  D7CF    01 14          C      	db	1,@wr1		;WR1
  0001                   C      @l	aset	00000001b	;;5 Bit, Empf.freigabe
                         C        if ((@lt mod 1000)/100) eq 6
                         C        endif
                         C        if ((@lt mod 1000)/100) eq 7
                         C        endif
                         C        if ((@lt mod 1000)/100) eq 8
BIOS CP/A, Buerocomputer (A5120/30 u. ae.)	MACRO-80 V3.50	25-Oct-85	Page	1-54


  00C1                   C      @l	aset	@l xor 11000000b
                         C        endif
  D7D1    03 C1          C      	db	3,@l		;WR3
                         C        ENDIF	;;(cpu ne c1715) or (@ld ne kbdsci)
  D7D3    01             C      	db	1	;**Ende SIO-Initialisierung** 
                         C       ENDIF
                         C      
                                 ENDIF
                                
                                  IF cdtdc1 or cdtdtr
                         C      	include BIOSCSIO
                         C      ;===================================================================
                         C      ; SIO-Treiber, DTR- und DC1/DC3-Protokoll
                         C      ;===================================================================
                         C      ;
                         C      ; Aenderungen:
                         C      ; - Statusabfrage jedesmal, auch wenn zuvor frei gemeldet
                         C      ; - Pufferueberlauf bei UC1-Puffer kontrolliert
                         C      ; - bei DC1/DC3 nach Initialisierung 7fh an Drucker und max. 30 sec auf
                         C      ;  Antwort gewartet (sonst Fehler am SD1157, wenn zu frueh gesendet wird)
                         C      ; 29.6.88:
                         C      ; - bei DC1/3 Protokoll wird neu initialisiert, wenn DC4 vom Drucker kommt
                         C      ;  (Probleme bei K6314)
                         C      ; 20.09.88
                         C      ; - Neben DTR-Statusabfrage ueber Kanal B, Bit 3 (Treiber 1, Standard)
                         C      ;  auch DTR-Statusabfrage ueber Kanal A, Bit 5 (Treiber 3) unterstuetzt
                         C      ; 23.03.89
                         C      ; - CTS-Zusammenspiel bei K6311 u.ae. funktioniert nur, wenn bis zum
                         C      ;   Verlassen aller Bits aus dem Sender gewartet wird und nicht nur auf
                         C      ;   das Freiwerden des Sendepuffers - sonst Zeichenverlust!
                         C      ; - wenn UC1 am Kanal A wird WR1 Bit2 und WR2 im Kanal B gesetzt
                         C       IF cpu eq c1715
                         C       ENDIF
                         C      ; 04.04.89
                         C      ; - nach Drucker-Init 'set 0,(ix+ltpst)' statt 'ld (ix+ltpst),11h'
                         C      ; 06.07.89
                         C      ; - wegen K6314-Problemen wird nach Initialisierung DC1 angenommen
                         C      ; - bei UC1-Kopplung ueber DTR ohne Warten auf Senderegister leer,
                         C      ;   nur Warten auf Sendepuffer leer
                         C      ;   (Aenderung 23.03.89 daher nur fuer Drucker wirksam, sonst zu langsam)
                         C      ; 15.09.89
                         C      ; - bei UC1-Kopplung ueber DC1/DC3 nicht 7fh zu Beginn gesendet, sondern DC1
                         C      ;**************************************************************************
                         C      
  D12F                   C      cdsioi	equ	dumi		;keine Zeicheneingabe unterstuetzt
                         C      
                         C      ; Einzelzeichenausgabe Reg. A
  D7D4    DD 4E 02       C      cdsioo:	ld	c,(ix+ltpsd)	;Datenport
  D7D7    ED 79          C      	out	(c),a
  D7D9    C9             C      	ret
                         C      
                         C      ;------------------------------------
                         C      
                         C      ; Statusabfrage
  D7DA    DD 7E 00       C      cdsios:	ld	a,(ix+ltpst)	;Status
  D7DD    CB 4F          C      	bit	1,a		;senderseitig blockiert?
  D7DF    20 3F          C      	jr	nz,lstsr	;ja, frei rueckmelden
  D7E1    B7             C      	or	a		;initialisiert?
  D7E2    CC D847        C      	call	z,cdsins	;nein
  D7E5    DD CB 0A 7E    C      	bit	7,(ix+ltpw5)	;Prozedur DTR?
  D7E9    28 3A          C      	JR	Z,lstsdc	;nein
  D7EB    DD 4E 03       C      	ld	c,(ix+ltpsc)	;SIO Kommando
BIOS CP/A, Buerocomputer (A5120/30 u. ae.)	MACRO-80 V3.50	25-Oct-85	Page	1-55


                         C       IF iobuc1
  D7EE    DD CB 01 7E    C      	bit	7,(ix+ltpdc)	;Warten auf Senderegister leer?
  D7F2    28 0C          C      	jr	z,lstse0	;ja
  D7F4    3E 10          C      	ld	a,00010000b	;Reset Ext/Status-Interrupt, Lesereg. 0
  D7F6    ED 79          C      	out	(c),a		;Status abspeichern
  D7F8    ED 78          C      	in	a,(c)		;Lesereg. 0
  D7FA    CB 57          C      	bit	2,a		;Sendepuffer leer?
  D7FC    20 0C          C      	jr	nz,lstse1	;ja
  D7FE    18 20          C      	jr	lstsr		;nein, Drucker besetzt
  D800                   C      lstse0:
                         C       ENDIF
                         C       IF cpu eq c1715 ;wegen evtl. parallelem Tastaturpolling am gleichen SIO-Kanal
                         C       ENDIF
  D800    3E 11          C      	LD	a,00010001b	;Reset Ext/Status-Interrupt, Lesereg. 1
  D802    ED 79          C      	OUT	(C),a		;Status abspeichern
  D804    ED 78          C      	IN	a,(C)		;Leseregister 1
                         C       IF cpu eq c1715 ;wegen evtl. parallelem Tastaturpolling am gleichen SIO-Kanal
                         C       ENDIF
  D806    CB 47          C      	bit	0,a		;alle Bits gesendet?
                         C      				; Sendepuffer frei reicht nicht, da
                         C      				; K6311 u.ae. nicht korrekt arbeiten
  D808    28 16          C      	jr	z,lstsr		;nein, Drucker besetzt
  D80A    DD CB 01 5E    C      lstse1:	bit	3,(ix+ltpdc)	;Abfrage DTR ueber DCD im Kanal B?
  D80E    20 06          C      	jr	nz,lstsb3	;ja
  D810    ED 78          C      	in	a,(c)		;Leseregister 0
  D812    CB 6F          C      	bit	5,a		;CTS?
  D814    18 0A          C      	jr	lstsr		;nz bei ja
  D816    0C             C      lstsb3:	inc	c
  D817    0C             C      	inc	c		;auf Kanal B
  D818    3E 10          C      	LD	a,00010000b	;Reset Ext/Status-Interrupt, Lesereg. 0
  D81A    ED 79          C      	out	(c),a		;DCD in RR0 Kanal B abspeichern
  D81C    ED 78          C      	in	a,(c)		;Leseregister 0 des Kanal B
  D81E    CB 5F          C      	bit	3,a		;DCD im Kanal B (ist DTR-Bit vom Kanal A)
                         C      ; Ausgang Senderstatus
  D820                   C      lstsr:
  D820    3E FF          C      lstsr1:	ld	a,0ffh
  D822    C0             C      	ret	nz		;senderseitig frei
  D823    3C             C      	inc	a		;A=00, ret z
  D824    C9             C      	RET			;senderseitig besetzt
                         C      ;-----------------------
                         C      ; DC1/DC3 und XON/XOFF
  D825    DD 4E 02       C      lstsdc:	LD	C,(ix+ltpsd)	;SIO Daten
  D828    ED 78          C      	IN	A,(C)		;Status lesen (SIO speichert letzten Status)
  D82A    DD 77 01       C      	LD	(ix+ltpdc),A	;zuletzt empf. Zeichen fuer Fehlersuche merken
  D82D    E6 7F          C      	and	7fh		;evtl. Paritaet ignorieren
  D82F    FE 13          C      	cp	13h		;DC3?
  D831    28 12          C      	jr	z,lstsd2	;ja, besetzt
  D833    FE 14          C      	cp	14h		;DC4 (Status)?
  D835    20 05          C      	jr	nz,lstsd1	;nein (DC1 angenommen)
  D837    CD D87B        C      	call	cdsini		;statt Status abzuholen neu initialisieren
  D83A    18 E9          C      	jr	lstsdc		;und Status neu abfragen
  D83C    DD 4E 03       C      lstsd1:	ld	c,(ix+ltpsc)	;SIO Kommando
  D83F    ED 78          C      	in	a,(c)
  D841    CB 57          C      	bit	2,a		;Sendepuffer leer? (nz bei ja)
  D843    18 DB          C      	jr	lstsr
  D845    AF             C      lstsd2:	xor	a		;A=00, ret z
  D846    C9             C      	ret			;senderseitig besetzt
                         C      
                         C      ;-----------------------
                         C      
                         C      ; (Re-)Initialisierung
                         C      ; IX auf Steuertabelle
BIOS CP/A, Buerocomputer (A5120/30 u. ae.)	MACRO-80 V3.50	25-Oct-85	Page	1-56


                         C      ; ret: C zeigt auf Kommandoport
                         C      
                         C      ; Sender initialisieren
  D847                   C      cdsins:
  D847    DD CB 00 C6    C      	set	0,(ix+ltpst)	;Sender ist initialisiert
  D84B    CD D87B        C      	call	cdsini
  D84E    DD CB 0A 7E    C      	bit	7,(ix+ltpw5)	;Prozedur DC1/DC3?
  D852    C0             C      	ret	nz		;nein
  D853    41             C      	ld	b,c
  D854    DD 4E 02       C      	ld	c,(ix+ltpsd)	;Datenport
                         C       IF iobuc1
  D857    DD CB 01 7E    C       	bit	7,(ix+ltpdc)	;Warten auf Senderegister leer?
  D85B    28 06          C      	jr	z,cdsind	;ja, Drucker
  D85D    3E 11          C      	ld	a,11h		;bei UC1: mit DC1/DC3-Protokoll DC1 senden
  D85F    ED 79          C      	out	(c),a
  D861    48             C      	ld	c,b
  D862    C9             C      	ret
                         C       ENDIF
  D863    3E 7F          C      cdsind:	ld	a,7fh		;nach Initialisierung RESET senden
  D865    ED 79          C      	out	(c),a
  D867    48             C      	ld	c,b
  D868    11 0BB8        C      	ld	de,30*100	;max. Wartezeit ca. 30 sec (SD1157!)
  D86B    ED 78          C      cdsinw:	in	a,(c)
  D86D    CB 47          C      	bit	0,a		;Antwort da?
  D86F    C0             C      	ret	nz		;ja
  D870    06 01          C      	ld	b,1
  D872    CD E6C5        C      	call	wait10		;10ms warten
  D875    1B             C      	dec	de
  D876    7A             C      	ld	a,d
  D877    B3             C      	or	e		;max. Wartezeit abgelaufen?
  D878    20 F1          C      	jr	nz,cdsinw	;nein
  D87A    C9             C      	ret			;sonst Drucker wohl nicht bereit
                         C      
                         C      
                         C      ; gem. UP fuer Sender und Empf. initialisieren
  D87B                   C      cdsini:
  D87B    DD E5          C      	push	ix
  D87D    E1             C      	pop	hl
  D87E    01 000B        C      	ld	bc,ltpini
  D881    09             C      	add	hl,bc
                         C       IF cpu eq c1715 ;wegen evtl. parallelem Tastaturpolling am gleichen SIO-Kanal
                         C       ENDIF
  D882    CD D773        C      	call	portpr		;CTC, WR0, WR4, WR1, WR3
                         C       IF cpu eq c1715 ;wegen evtl. parallelem Tastaturpolling am gleichen SIO-Kanal
                         C       ENDIF
  D885    DD 5E 0A       C      ltpow5:	LD	e,(ix+ltpw5)	;Prozedurtyp/Bitanzahl
                         C      ; Stellen Schreibregister 5
                         C      ; Reg. B,HL bleiben erhalten
  D888    3E 05          C      ltpot5:	ld	a,5
  D88A    DD 4E 03       C      	ld	c,(ix+ltpsc)
                         C       IF cpu eq c1715 ;wegen evtl. parallelem Tastaturpolling am gleichen SIO-Kanal
                         C       ENDIF
  D88D    ED 79          C      	OUT	(C),A
  D88F    ED 59          C      	OUT	(C),e
                         C       IF cpu eq c1715 ;wegen evtl. parallelem Tastaturpolling am gleichen SIO-Kanal
                         C       ENDIF
  D891    C9             C      	RET
                         C      
                         C      ;-------------------------------------
                         C       if iobuc1
                         C      
                         C      ; UC1-Routinen (ausser Senden)
BIOS CP/A, Buerocomputer (A5120/30 u. ae.)	MACRO-80 V3.50	25-Oct-85	Page	1-57


                         C      
                         C      ; UC1: Empf.-Status
                         C      ;==================
                         C      ; o A=0, ret z	: kein Zeichen empfangen
                         C      ; o A=ff,ret nz	: Zeichen da
  D892    DD 21 D7B7     C      uc1st:	ld	ix,lstuc1	;Stellen IX auf Steuertabelle
  D896                   C      uc1si:	;interner Aufruf mit gestelltem IX
  D896    DD CB 00 66    C      	bit	4,(ix+ltpst)	;initialisiert?
  D89A    20 19          C      	jr	nz,uc1si1	;ja
  D89C    AF             C      	xor	a
  D89D    32 D963        C      	ld	(uc1bfp),a	;Puffer leeren
  D8A0    CD D87B        C      	call	cdsini		;Initialisierung
  D8A3    DD CB 00 E6    C      	set	4,(ix+ltpst)	;Empfaenger ist initialisiert
  D8A7    F3             C      	di
                         C       IF (uc1dat xor uc1sta) eq 01b	;Kanal-Nr ist Bit 1 (bei Buerocomp und OEM)
                         C        IF (uc1sta and 10b) eq 00b	;UC1 ist an Kanal A
  D8A8    CB C9          C      	set	1,c		;Kanal B erzwingen
                         C        ENDIF
                         C       ENDIF
  D8AA    21 D8BD        C      	ld	hl,uc1i2	;WR1,WR2 programmieren
  D8AD    06 04          C       	ld	b,uc1il
  D8AF    ED B3          C      	otir
  D8B1    FB             C      	ei
  D8B2    CD D8EC        C      	call	uc1ird		;DTR bzw. DC1 senden
  D8B5    3A D963        C      uc1si1:	ld	a,(uc1bfp)	;Zeichen im Empfpuffer?
  D8B8    B7             C      	or	a
  D8B9    C8             C      	ret	z		;nein
  D8BA    3E FF          C      	ld	a,0ffh
  D8BC    C9             C      	ret
                         C      
  D8BD                   C      uc1i2: ;zusaetzliche Initialisierung fuer WR1/Bit2 und WR2 (beide nur Kanal B)
                         C       IF (uc1dat xor uc1sta) eq 01b	;Kanal-Nr ist Bit 1 (bei Buerocomp und OEM)
                         C        IF (uc1sta and 10b) eq 00b	;UC1 ist an Kanal A
  D8BD    01 04          C      	db	1,00000100b	;WR1, Kanal B: Intv.modif. setzen
                         C        ENDIF
                         C       ENDIF
  D8BF    02 D0          C      	db	2,ivsio0	;WR2, Kanal B: Interruptvektor
  0004                   C      uc1il	equ	$-uc1i2
                         C      ; UC1: empf. Zeichen an Nutzer
                         C      ;=============================
                         C      ; o A:	aeltestes empf. Zeichen
                         C      
  D8C1    DD 21 D7B7     C      uc1i:	ld	ix,lstuc1	;Stellen IX auf Steuertabelle
                         C      
  D8C5                   C      uc1ii:	;interner Aufruf mit gestelltem IX
  D8C5    FB             C      uc1iw:	ei			;UC1:-Interrupt zulassen
  D8C6    CD D896        C      	call	uc1si		;Zeichen da?
  D8C9    28 FA          C      	jr	z,uc1iw		;nein ***keine Zeitueberwachung!***
  D8CB    21 D963        C      	ld	hl,uc1bfp
  D8CE    F3             C      	di
  D8CF    4E             C      	ld	c,(hl)
  D8D0    35             C      	dec	(hl)		;Pufferlaenge -1
  D8D1    06 00          C      	ld	b,0
  D8D3    23             C      	inc	hl		;^(aeltestes Pufferzeichen)
  D8D4    7E             C      	ld	a,(hl)		;Zeichen nach A
  D8D5    11 D965        C      	ld	de,uc1buf+1
  D8D8    EB             C      	ex	de,hl
  D8D9    ED B0          C      	ldir			;Puffer aufschieben
  D8DB    FB             C      	ei
  D8DC    DD CB 00 7E    C      	bit	7,(ix+ltpst)	;war Stopaufforderung?
  D8E0    C8             C      	ret	z		;nein
  D8E1    F5             C      	push	af		;retten Zeichen
BIOS CP/A, Buerocomputer (A5120/30 u. ae.)	MACRO-80 V3.50	25-Oct-85	Page	1-58


  D8E2    3A D963        C      	ld	a,(uc1bfp)	;Pufferbelegung
  D8E5    FE 06          C      	cp	1*uc1bfl/3	;unter dem Limit?
  D8E7    DC D8EC        C      	call	c,uc1ird	;ja, Senden wieder erlauben
  D8EA    F1             C      	pop	af
  D8EB    C9             C      	ret
                         C      
                         C      ; Empfangsbereitschaft anzeigen
  D8EC    DD CB 00 BE    C      uc1ird:	res	7,(ix+ltpst)
  D8F0    DD CB 0A 7E    C      	bit	7,(ix+ltpw5)	;Prozedur DC1/DC3?
  D8F4    C2 D885        C      	jp	nz,ltpow5	;nein, DTR wieder setzen
  D8F7    3E 11          C      	ld	a,11h		;DC1 (Senden wieder erlauben)
  D8F9    DD 4E 02       C      	LD	C,(ix+ltpsd)	;SIO Daten
  D8FC    ED 79          C      	OUT	(C),A
  D8FE    C9             C      	ret
                         C      
                         C      ; UC1: Empf.-Interrupt
                         C      ;=====================
  D8FF    ED 73 E4F8     C      uc1rin:	ld	(intsp),sp
  D903    31 F00C        C      	ld	sp,intstk
  D906    F5             C      	push	af
  D907    E5             C      	push	hl
  D908    D5             C      	push	de
  D909    C5             C      	push	bc
  D90A    DD E5          C      	push	ix
  D90C    21 D92C        C      	ld	hl,uc1rir
  D90F    E5             C      	push	hl
  D910    DD 21 D7B7     C      	ld	ix,lstuc1	;Stellen IX auf Steuertabelle
  D914    DD 4E 02       C      	ld	c,(ix+ltpsd)	;SIO Daten
  D917    ED 40          C      	in	b,(c)		;Zeichen lesen
  D919    21 D963        C      	ld	hl,uc1bfp	;Pufferzeiger zum zuletzt empf. Zeichen
  D91C    7E             C      	ld	a,(hl)
  D91D    FE 14          C      	cp	uc1bfl		;Puffer voll?
  D91F    D0             C      	ret	nc		;ja, Zeichen ignorieren
  D920    FE 0D          C      	cp	2*uc1bfl/3	;Puffer fast voll (SIO-Empf.puffer 3 Byte!)?
  D922    D4 D931        C      	call	nc,uc1ri1	;ja, DC3 senden bzw. DTR wegnehmen
  D925    34             C      	inc	(hl)		;+1
  D926    5E             C      	ld	e,(hl)
  D927    16 00          C      	ld	d,0
  D929    19             C      	add	hl,de		;naechste freie Stelle
  D92A    70             C      	ld	(hl),b		;Zeichen in Puffer
  D92B    C9             C      	ret
  D92C    DD E1          C      uc1rir:	pop	ix
  D92E    C3 E4F3        C      	jp	intrbc		;fertig
                         C      
                         C      ; Stopaufforderung senden
                         C      ; B,HL bleibt erhalten
  D931    DD CB 00 FE    C      uc1ri1:	set	7,(ix+ltpst)	;merken Stopaufforderung
  D935    DD 5E 0A       C      	ld	e,(ix+ltpw5)
  D938    CB 7B          C      	bit	7,e		;Prozedur DC1/DC3?
  D93A    28 05          C      	jr	z,uc1ri2	;ja
  D93C    CB BB          C      	res	7,e		;DTR loeschen
  D93E    C3 D888        C      	jp	ltpot5
  D941    3E 13          C      uc1ri2:	ld	a,13h		;DC3 an Partner (Senden stopppen)
  D943    DD 4E 02       C      	LD	C,(ix+ltpsd)	;SIO Daten
  D946    ED 79          C      	OUT	(C),A
  D948    C9             C      	ret
                         C      
                         C      ; UC1: Interrupt Empf.-Fehler (Parit., Ueberlauf, Rahmenfehler)
                         C      ;============================
  D949    ED 73 E4F8     C      uc1err:	ld	(intsp),sp
  D94D    31 F00C        C      	ld	sp,intstk
  D950    F5             C      	push	af
BIOS CP/A, Buerocomputer (A5120/30 u. ae.)	MACRO-80 V3.50	25-Oct-85	Page	1-59


  D951    E5             C      	push	hl
  D952    D5             C      	push	de
  D953    C5             C      	push	bc
  D954    DD E5          C      	push	ix
  D956    DD 21 D7B7     C      	ld	ix,lstuc1	;Stellen IX auf Steuertabelle
  D95A    DD 4E 03       C      	ld	c,(ix+ltpsc)	;SIO Kommando
  D95D    16 30          C      	ld	d,00110000b	;Reset Fehler-Interrupt
  D95F    ED 51          C      	out	(c),d
                         C      				;keine Fehlermeldung, da bei
                         C      				;Empf.ueberlauf alles noch
                         C      				;mehr verzoegert wird
  D961    18 C9          C      	jr	uc1rir
                         C      
                         C      ; UC1: Empfangspuffer
                         C      ;====================
  D963    00             C      uc1bfp:	db	0
  D964                   C      uc1buf:	ds	uc1bfl,0
                         C      
                         C       endif	;uc1
                         C      
                                  ENDIF
                                  IF cdtsib
                                  ENDIF
                                  IF cdtpio
                                  ENDIF
                                  IF cdtp54
                                  ENDIF
                                  IF cdth54
                                  ENDIF
                                  IF cdtn56 or cdtp56
                                  ENDIF
                                 ENDIF
                                
                         C      	include BIOSDSK
                         C      
                         C      ;****************************************************
                         C      ;	Diskettentreiber; Umkleidung des phys. Transfers
                         C      ;	Version 04.11.88
                         C      ; Aenderungen:
                         C      ; - Jeder Fehler in Spur 0, Sektor 1 fuehrt zur Annahme von Systemspuren
                         C      ;   (A7100-System mit 5" FM und 8272-Hardware mit 128er Sektorlaenge)
                         C      ; - !!Schnittstelle fuer diskio-Aufruf neu!! (Flags neu, side zusaetzlich)
                         C      ; - Verify nach Schreiben kann laufwerksspezifisch gewaehlt werden
                         C      ; - Laufwerkskapazitaet nach phys. LW-Nr in Statuszeile
                         C      ; - Fehlerkorrektur bei KAYPRO IV fuer C128
                         C      ; 12.06.88
                         C      ; - bei stzaus in synflg keine Pflege der Statuszeile
                         C      ; 06.07.88:
                         C      ; - Spurnummer generell auf 16 bit erweitert
                         C      ; 14.10.88
                         C      ; - Generierung ohne Floppy-Laufwerke moeglich
                         C      ; 26.10.88
                         C      ; - Test der Laufwerksbereitschaft bei Select
                         C      ; 04.11.88
                         C      ; - bei 5" und 512 Sektorlaenge Dir-Groesse 0
                         C      ; 12.03.89
                         C      ; - 'ibmfrm' gestrichen, phys. Formaterkennung fuer SIOS erfolgt immer
                         C      ;****************************************************
                         C      
                         C       if1
                         C       endif
                         C      
BIOS CP/A, Buerocomputer (A5120/30 u. ae.)	MACRO-80 V3.50	25-Oct-85	Page	1-60


                         C      ; Laufwerksauswahl
                         C      ;=================
                         C      ; i C: Laufw. (0=A:, 1=B: ...)
                         C      ; i E: Bit 0 ist LOGIN-Bit von BDOS (=0, wenn LOGIN)
                         C      
  D978    CD E794        C      seldsk:	call	dgetpb		;HL auf DPH stellen, IX auf DPB
  D97B    C8             C      	ret	z		;Geraet ex. nicht
  D97C    79             C      	ld	a,c
  D97D    32 DEFC        C      	ld	(ddrive),a	;Laufwerk merken
  D980    CB 43          C      	bit	0,e		;LOGIN von BDOS?
  D982    C0             C      	ret	nz		;nein
                         C       if ramfl
                         C      ;###RAM-Floppy
  D983    DD CB 0F 7E    C      	bit	dpbfnd,(ix+dpbflg)	;Diskette?
  D987    C0             C      	ret	nz		;nein, fertig
                         C      ;####
                         C       endif
  D988    E5             C      	push	hl		;^DPH merken
                         C      
                         C      	IF	dbufsz gt 7
  D989    21 DEF3        C      	ld	hl,dbdev
  D98C    BE             C      	cp	(hl)		;LOGIN fuer gepuffertes Device?
  D98D    20 07          C      	jr	nz,dselnb	;nein
  D98F    36 FF          C      	ld	(hl),0ffh	;Puffer ist ungueltig
  D991    21 DEF2        C      	ld	hl,dbflg
  D994    CB 96          C      	res	dfbwr,(hl)	;kein veraend. Puffer auszug.!
  D996                   C      dselnb:
                         C      	ENDIF
                         C      
                         C       IF format
  D996    DD CB 0F 76    C      	bit	dpbfrm,(ix+dpbflg);Formaterkennung unterdr.?
  D99A    28 1A          C      	jr	z,drdfrm	;nein
                         C       ENDIF
                         C      
                         C      ; Test der Laufwerks-Bereitschaft; nur dann Select Disk ok
                         C      ;---------------------------------------------------------
  D99C    32 DEE5        C      	ld	(drddev),a	;log. LW
  D99F    DD 6E 0D       C      	ld	l,(ix+dpbofs)
  D9A2    DD 66 0E       C      	ld	h,(ix+dpbofs+1)
  D9A5    22 DEE6        C      	ld	(drdtrk),hl	;auf Beginn des Verzeichnisses
  D9A8    21 DEE4        C      	ld	hl,drdcdb	;Positionieren ohne Fehlerbehandlung
  D9AB    CD DD31        C      	call	dsktra
  D9AE    CA DB63        C      	jp	z,selext	;ok
  D9B1    E1             C      	pop	hl		;^DPH wegschmeissen
  D9B2    21 0000        C      	ld	hl,0		;Select Fehler
  D9B5    C9             C      	ret
  D9B6                   C      drdfrm:
                         C      
                         C      	IF	format
                         C      ;++++++++++Automatische Format-Erkennung++++++++++
                         C      ; Reg. C zeigt auf Laufwerk
                         C      
                         C      	IF	dbufsz gt 7
  D9B6    CD DD11        C       	call	dbtrw		;Puffer freimachen
                         C      				;und auf Lesen schalten
  D9B9    21 DF09        C      	ld	hl,dbnb
  D9BC    36 FF          C      	ld	(hl),0ffh	;Puffernummer ist ungueltig, obwohl evtl.
                         C      				;alle anderen Pufferparameter stimmen
                         C      				;(da nur 128 Bytes vom Puffer belegt sind)
                         C      	ENDIF
                         C      
  D9BE    79             C      	ld	a,c
BIOS CP/A, Buerocomputer (A5120/30 u. ae.)	MACRO-80 V3.50	25-Oct-85	Page	1-61


  D9BF    32 DEEC        C      	ld	(dfrmdv),a
  D9C2    32 DEF3        C      	ld	(dbdev),a
                         C      
  D9C5    AF             C      	xor	a
  D9C6    DD 77 0F       C      	ld	(ix+dpbflg),a	;ruecksetzen alle Flags
  D9C9    DD 77 13       C      	ld	(ix+dpbsn0),a	;keine Weiter-Numm. auf Ruecks.
  D9CC    DD 77 0D       C      	ld	(ix+dpbofs),a	;keine Systemspuren
                         C      
  D9CF    32 DEED        C      	ld	(dfrmtr),a	;Spur 0
  D9D2    32 DEF4        C      	ld	(dbtrk),a
  D9D5    32 DEF5        C      	ld	(dbtrk+1),a
  D9D8    3C             C      	inc	a
  D9D9    32 DEF6        C      	ld	(dbsec),a	;Sektor 1
  D9DC    32 DEF8        C      	ld	(dbsnb),a	;1 phys. Sektor lesen
                         C      
                         C      ; Stellen  Sektor-Translate-Tabelle 1,2,3,...
  D9DF    DD E5          C      	push	ix
  D9E1    06 1A          C      	ld	b,26		;max. Laenge der Tabelle
                         C       IF dsk8mf
                         C       ENDIF
  D9E3    DD 77 19       C      selstz:	ld	(ix+dpbstr),a
  D9E6    DD 23          C      	inc	ix
  D9E8    3C             C      	inc	a
  D9E9    10 F8          C      	djnz	selstz
  D9EB    DD E1          C      	pop	ix
                         C      
                         C      ; Positionieren auf Spur 0 und analysieren Systemspuren
  D9ED    CD DD29        C      	call	dsidtr		;beliebigen Sekt.Id lesen
  D9F0    20 3E          C      	jr	nz,selsys	;Fehler beim Lesen; Systemsp. annehmen
                         C      ;				 (z.B. SCP1700 mit 5"FM in Spur 0!!)
  D9F2    7C             C      	ld	a,h
  D9F3    32 DEF7        C      	ld	(dbslc),a	;setzen Spurformat fuer Sp. 0
                         C      	IF	dbufsz le 7
                         C      	ENDIF
  D9F6    21 DEF2        C      	ld	hl,dbflg
                         C       IF dsk8mf
                         C       ENDIF
  D9F9    46             C      	ld	b,(hl)		;merken Fehlerprotokoll-Bit
  D9FA    CB E6          C      	set	dfbtr,(hl)	;kein Fehlerprotokoll
  D9FC    E5             C      	push	hl
  D9FD    CD DD17        C      	call	dbtran		;Lesen Spur 0, Sektor 1
  DA00    E1             C      	pop	hl
  DA01    70             C      	ld	(hl),b		;setzen Standard fuer Fehlerprotokoll-Bit
  DA02    20 2C          C      	jr	nz,selsys	;Fehler, Systemspuren annehmen
  DA04    FD E5          C      	push	iy
  DA06    FD 2A DEF9     C      	ld	iy,(dbdma)
  DA0A    FD 7E 00       C      	ld	a,(iy+0)	;Format-Loeschbyte
  DA0D    FE E5          C      	cp	0e5h		;leere Diskette/geloeschter Eintrag?
  DA0F    20 0A          C      	jr	nz,selsy2	;nein, weder/noch
  DA11    FD BE 01       C      	cp	(iy+1)		;auch danach 0e5h?
  DA14    20 15          C      	jr	nz,selsy0	;nein, geloeschter Dir-Eintrag
  DA16    DD 35 0D       C      	dec	(ix+dpbofs)	;Flag: leere Disk oder leere Systemsp.
  DA19    18 10          C      	jr	selsy0		;dpbofs auf 254
  DA1B                   C      selsy2:
  DA1B    FE 40          C      	cp	40h		;IBM-Format (SIOS-Daten-Diskette)?
  DA1D    28 0F          C      	jr	z,selsy1	;ja, 0 Systemspuren annehmen
  DA1F    FE 20          C      	cp	20h		;<=31 ? ("S"YL ist groesser!)
  DA21    30 0B          C      	jr	nc,selsy1	;nein, kann kein Directory sein; 0 Systemsp.
                         C      ;Systemlader fuer PC1715 beginnt mit 02 oder 03
  DA23    FD 7E 20       C      	ld	a,(iy+20h)	;bei SCP1715-Systemdiskette dort 00h
                         C      				;bei MicroDos dort 10h
  DA26    FD B6 21       C      	or	(iy+21h)	;bei SCP1715-Systemdiskette dort 00h
BIOS CP/A, Buerocomputer (A5120/30 u. ae.)	MACRO-80 V3.50	25-Oct-85	Page	1-62


                         C      				;bei CP/A dort Dir-Eintrag (E5 oder Filename)
  DA29    28 03          C      	jr	z,selsy1	;beides 00h, kein Directory; 0 Systemsp.
  DA2B    DD 35 0D       C      selsy0:	dec	(ix+dpbofs)	;=255, wenn Directory; =254 wenn vorn leer
  DA2E                   C      selsy1:
  DA2E    FD E1          C      	pop	iy
  DA30                   C      selsys:
                         C      
                         C      ; Analysieren Datenspur
                         C      
                         C      ; SS/DS-Analyse
  DA30    DD 36 12 02    C      	ld	(ix+dpbstp),2	;Doppel-Step-Impulse
  DA34    3E 03          C      	ld	a,dlgint	;auf LOGIN-Spur
  DA36    CD DD26        C      	call	dsidtt		;belieb. SektId Vorderseite lesen
  DA39    20 2B          C      	jr	nz,seldle	;Fehler, unsicheres Format
  DA3B    54             C      	ld	d,h		;d:=Sektorlcode, e:=Spur
                         C       IF dsk8mf
                         C       ENDIF
                         C       IF dskds
  DA3C    DD CB 18 46    C      	bit	dpbtds,(ix+dpbtyp)	;ist es ein DS-Laufwerk?
  DA40    28 14          C      	jr	z,selss		;nein, SS
  DA42    D5             C      	push	de		;merken Sektorlaengencode und Spur
  DA43    DD CB 0F EE    C      	set	dpbfds,(ix+dpbflg)
  DA47    3E 07          C      	ld	a,1+(dlgint*2)	;Rueckseite der Spur,
                         C      				;ab der Format bei SS konstant
  DA49    CD DD26        C      	call	dsidtt		;beliebigen Sekt.Id Ruecks. lesen
  DA4C    7A             C      	ld	a,d		;merken side Ruecks.
  DA4D    6B             C      	ld	l,e		;h:=Sektorlcode, l:=Spur Rueckseite
  DA4E    D1             C      	pop	de		;wiederherstellen Vorderseite
  DA4F    20 05          C      	jr	nz,selss	;Fehler beim Lesen, SS
  DA51    B7             C      	or	a
  DA52    ED 52          C      	sbc	hl,de		;Vorder- gleich Rueckseite?
  DA54    28 04          C      	jr	z,sel48		;ja; 40 Tr/ 80 Tr unterscheiden
  DA56    DD CB 0F AE    C      selss:	res	dpbfds,(ix+dpbflg)
                         C       ENDIF
                         C      
                         C      ; 40/80 Track Analyse
  DA5A    7B             C      sel48:	ld	a,e		;trk
  DA5B    D6 03          C      	sub	dlgint		;waren 2 Steps richtig? 
  DA5D    28 12          C      	jr	z,seldl1	;ja
  DA5F    DD 35 12       C      	dec	(ix+dpbstp)	;Einzelstep-Impulse
  DA62    D6 03          C      	sub	dlgint		;waere 1 Step richtig?
  DA64    28 0B          C      	jr	z,seldl1	;ja
                         C      				;nein, unsicher
  DA66    DD 36 10 FF    C      seldle:	ld	(ix+dpbslc),0ffh;provozieren 'BAD SECTOR'
  DA6A    21 0000        C      	ld	hl,0		;erzeugen 'SELECT' Error
  DA6D    E3             C      	ex	(sp),hl
  DA6E    C3 DB63        C      	jp	selext
                         C      
                         C      ; DS/SS und 40/80 ist unterschieden, es fehlt Sektorlaenge
  DA71    7A             C      seldl1:	ld	a,d
  DA72    DD 77 10       C      	ld	(ix+dpbslc),a	;definieren Sektorlaengencode
                         C       IF	dbufsz le 7
                         C       ELSE
                         C      	IF	dbufsz lt 10	;Test, ob Disk-Puffer ausreicht
                         C      	ENDIF
  DA75    B7             C      	or	a		;Sektorlaenge 128?
  DA76    20 0F          C      	jr	nz,seldxl	;nein, normale Sektorfolge
                         C       ENDIF	;dbufsz gt 7
                         C       IF dsk8mf
                         C       ENDIF
  DA78                   C      seldsv:
                         C      ; Stellen Sektor-Translate-Tabelle 1,7,13,..
BIOS CP/A, Buerocomputer (A5120/30 u. ae.)	MACRO-80 V3.50	25-Oct-85	Page	1-63


  DA78    DD E5          C      	push	ix
  DA7A    E1             C      	pop	hl
  DA7B    01 0019        C      	ld	bc,dpbstr
  DA7E    09             C      	add	hl,bc
  DA7F    EB             C      	ex	de,hl
  DA80    21 DEB5        C      	ld	hl,xlt
  DA83    0E 1A          C      	ld	c,26
  DA85    ED B0          C      	ldir
  DA87                   C      seldxl:
                         C      
  DA87    CD DE48        C      	call	dtrsla		;stellen hl entspr. Sektorlaenge
  DA8A    20 DA          C      	jr	nz,seldle	;unzulaessig
  DA8C    01 0005        C      	ld	bc,dsll		;Laenge eines Eintrags
                         C       IF disk8
                         C       ENDIF
  DA8F    DD CB 12 4E    C      	bit	1,(ix+dpbstp)	;40 Tr. auf 80er LW?
  DA93    20 08          C      	jr	nz,seld40	;ja
  DA95    DD 7E 16       C      	ld	a,(ix+dpbptr)	;40er LW?
  DA98    FE 29          C      	cp	40+1
  DA9A    38 01          C      	jr	c,seld40	;ja, 40 Tr. auf 40er LW
  DA9C    09             C      	add	hl,bc		;auf 80er Format stellen
  DA9D    DD CB 0F 6E    C      seld40:	bit	dpbfds,(ix+dpbflg)	;DS?
  DAA1    28 02          C      	jr	z,seldss	;nein
  DAA3    09             C      	add	hl,bc		;auf DS Format
  DAA4    09             C      	add	hl,bc
  DAA5                   C      seldss:
  DAA5                   C      selset:
                         C      ; DPB modifizieren entsprechend erkanntem Format
  DAA5    4E             C      	ld	c,(hl)		;Zahl der benutzten Spuren
  DAA6    DD 71 14       C      	ld	(ix+dpbtrk),c
  DAA9    23             C      	inc	hl
  DAAA    4E             C      	ld	c,(hl)		;Anzahl 128er Sektoren pro Spur
  DAAB    DD 71 00       C      	ld	(ix+dpbspt),c
  DAAE    23             C      	inc	hl
  DAAF    4E             C      	ld	c,(hl)		;Anzahl der Dir-Eintraege -1
  DAB0    23             C      	inc	hl
  DAB1    7E             C      	ld	a,(hl)		;Anzahl der Systemspuren
  DAB2    CB 3F          C      	srl	a		;feste Anzahl erzwungen?
  DAB4    38 28          C      	jr	c,seldof	;ja
  DAB6    DD CB 0D 7E    C      	bit	7,(ix+dpbofs)	;kann Spur 0 Directory sein?
  DABA    28 22          C      	jr	z,seldof	;nein, Standardanzahl setzen
  DABC    DD 34 0D       C      	inc	(ix+dpbofs)	;evtl. leere Systemspur?
  DABF    28 1C          C      	jr	z,seldo0	;nein, 0 Systemspuren
  DAC1    47             C      	ld	b,a		;retten Anzahl Systemspuren
  DAC2    32 DEF4        C      	ld	(dbtrk),a	;einlesen evtl. moeglicher Datenbeginn
  DAC5    E5             C      	push	hl
  DAC6    CD DD17        C      	call	dbtran		; dauert bei falscher Spur etwas laenger
  DAC9    E1             C      	pop	hl
  DACA    78             C      	ld	a,b
  DACB    20 11          C      	jr	nz,seldof	;Fehler, mit Systemspuren annehmen
  DACD    FD E5          C      	push	iy
  DACF    FD 2A DEF9     C      	ld	iy,(dbdma)
  DAD3    FD 7E 0E       C      	ld	a,(iy+14)	;falls dort Dir, so Byte 14 von Dir =0
  DAD6    FE E5          C      	cp	0e5h		;Daten auch leer?
  DAD8    FD E1          C      	pop	iy
  DADA    78             C      	ld	a,b
  DADB    20 01          C      	jr	nz,seldof	;nein, vorn liegen nichtbelegte Systemspuren
  DADD    AF             C      seldo0:	xor	a		;sonst ohne Systemspuren
  DADE    DD 77 0D       C      seldof:	ld	(ix+dpbofs),a
  DAE1    B7             C      	or	a		;0 Systemspuren?
  DAE2    28 07          C      	jr	z,selddr	;ja
  DAE4    79             C      	ld	a,c		;Anzahl Dir-Eintraege -1
BIOS CP/A, Buerocomputer (A5120/30 u. ae.)	MACRO-80 V3.50	25-Oct-85	Page	1-64


  DAE5    FE BF          C      	cp	192-1		;>=192 Dir-Eintraege ?
  DAE7    38 02          C      	jr	c,selddr	;nein
  DAE9    0E 7F          C      	ld	c,128-1		;780k hat 128 Dir-Eintraege
  DAEB    DD 71 07       C      selddr:	ld	(ix+dpbdir),c
  DAEE    23             C      	inc	hl
  DAEF    4E             C      	ld	c,(hl)		;Abstand der Blockgroessentab.
  DAF0    06 00          C      	ld	b,0
  DAF2    09             C      	add	hl,bc		;auf Blockgroessentabelle
  DAF3    4E             C      	ld	c,(hl)
  DAF4    DD 71 02       C      	ld	(ix+dpbbls),c
  DAF7    23             C      	inc	hl
  DAF8    4E             C      	ld	c,(hl)
  DAF9    DD 71 03       C      	ld	(ix+dpbblm),c
  DAFC    23             C      	inc	hl
  DAFD    4E             C      	ld	c,(hl)
  DAFE    DD 71 04       C      	ld	(ix+dpbexm),c
                         C      
                         C      ; Bestimmen Zahl der abweichenden 128er-Sektoren ab Spur 0
                         C      
  DB01    AF             C      	xor	a
  DB02    32 DEED        C      	ld	(dfrmtr),a	;ab Spur 0
                         C      		;(gleichz. Spurkorr. bei falschen Doppelstepimpulsen)
  DB05    CD DD29        C      sf128z:	call	dsidtr		;beliebigen SektId lesen
  DB08    20 18          C      	jr	nz,sf128e	;Fehler
  DB0A    7C             C      	ld	a,h		;Sektorlaenge
  DB0B    DD BE 10       C      	cp	(ix+dpbslc)	;gleich Disketten-Rest?
  DB0E    28 12          C      	jr	z,sf128e	;ja
  DB10    DD 7E 0F       C      	ld	a,(ix+dpbflg)
  DB13    E6 03          C      	and	dpbfsm		;bisherige Anzahl abweichender Spuren
  DB15    FE 03          C      	cp	dpbfsm		;Zaehler voll?
  DB17    28 09          C      	jr	z,sf128e	;ja
  DB19    DD 34 0F       C      	inc	(ix+dpbflg)	;erhoehen abweich. Spurzahl
  DB1C    21 DEED        C      	ld	hl,dfrmtr	;naechste (logische!) Spur
  DB1F    34             C      	inc	(hl)
  DB20    18 E3          C      	jr	sf128z
  DB22                   C      sf128e:
                         C      
                         C      ; Setzen Anzahl der logischen 128er Rekords im Puffer -1
                         C      ; Es wird immer das Maximum gesetzt, dies setzt eine dichte
                         C      ; Sektorfolge beim Transfer voraus! (so in dpbstr)
                         C      
                         C      	IF	dbufsz gt 7
  DB22    DD 36 11 07    C      	ld	(ix+dpbbfm),+(1 shl (dbufsz-7))-1
                         C      	ENDIF
                         C      
                         C      ; Berechnen Speicherkapazitaet-1 in BDOS-Bloecken aus
                         C      ; ((Tracks-dpbofs)*dpbspt/(2**dpbbls))-1
  DB26    DD 6E 14       C      	ld	l,(ix+dpbtrk)
  DB29    AF             C      	xor	a
  DB2A    67             C      	ld	h,a		;hl:=log. Spurzahl
  DB2B    DD 5E 0D       C      	ld	e,(ix+dpbofs)
  DB2E    57             C      	ld	d,a		;de:=log. offset-Spurzahl
  DB2F    ED 52          C      	sbc	hl,de
  DB31    EB             C      	ex	de,hl		;de:=log. Daten-Spurzahl
  DB32    6F             C      	ld	l,a		;hl:=0
  DB33    DD 46 00       C      	ld	b,(ix+dpbspt)
  DB36    19             C      dsizmz:	add	hl,de
  DB37    10 FD          C      	djnz	dsizmz		;hl:=(tracks-dpbofs)*dpbspt
  DB39    DD 46 02       C      dsizme:	ld	b,(ix+dpbbls)
  DB3C    CB 3C          C      dsizdz:	srl	h
  DB3E    CB 1D          C      	rr	l
  DB40    10 FA          C      	djnz	dsizdz
BIOS CP/A, Buerocomputer (A5120/30 u. ae.)	MACRO-80 V3.50	25-Oct-85	Page	1-65


  DB42    2B             C      	dec	hl
  DB43    DD 75 05       C      	ld	(ix+dpbsiz),l
  DB46    DD 74 06       C      	ld	(ix+dpbsiz+1),h
  DB49    DD 7E 07       C      	ld	a,(ix+dpbdir)	;Dir-Groesse
  DB4C    3C             C      	inc	a
  DB4D    E6 FC          C      	and	0fch		;abrunden auf durch 4 teilbare Dir-Groesse
  DB4F    0F             C      	rrca
  DB50    0F             C      	rrca			;div 4, da 4 Dir-Eintr. /Sekt.
  DB51    DD 77 0B       C      	ld	(ix+dpbchk),a	;ist Sektorzahl = Check size
  DB54    DD 46 02       C      	ld	b,(ix+dpbbls)	;block shift
  DB57    0F             C      seldla:	rrca			;BDOS-Bloecke fuer Dir.
  DB58    10 FD          C      	djnz	seldla
  DB5A    47             C      	ld	b,a
  DB5B    AF             C      	xor	a
  DB5C    37             C      seldal:	scf			;Allocation-Bits fuer Dir.
  DB5D    1F             C      	rra
  DB5E    10 FC          C      	djnz	seldal
  DB60    DD 77 09       C      	ld	(ix+dpbalc),a
                         C      ;+++++++++++Ende automatische Formaterkennung+++++++++++++
                         C      	ENDIF	;format
                         C      
  DB63                   C      selext:
                         C       IF cpastz
                         C       ENDIF
                         C      
  DB63    E1             C      selexx:	pop	hl		;hl auf DPH
  DB64    C9             C      	ret			;Return Seldsk
                         C      
                         C       IF cpastz
                         C       ENDIF
                         C      
                         C      
                         C      ; auf Spur 0 zurueck (vor jedem Dir-Zugriff)
                         C      ;===================
  DB65                   C      home:
                         C      	IF	dbufsz gt 7
  DB65    21 DEF2        C      	ld	hl,dbflg
  DB68    CB 56          C      	bit	dfbwr,(hl)	;veraenderter Puffer?
  DB6A    20 05          C      	jr	nz,home1	;ja, nicht freigeben
  DB6C    3E FF          C      	ld	a,0ffh		;sonst Diskwechsel erlauben
  DB6E    32 DEF3        C      	ld	(dbdev),a	;Puffer ist nicht aktiv
                         C      	ENDIF
  DB71    01 0000        C      home1:	ld	bc,0
                         C      ;-----------------------
                         C      
                         C      ; Einstellen Spur in Reg. BC
                         C      ;================
  DB74                   C      settrk:
  DB74    ED 43 DEFD     C      	ld	(dtrack),bc	;Spur merken
  DB78    C9             C      	ret
                         C      ;-----------------------
                         C      
                         C      ; Einstellen Sektor in Reg. C
                         C      ;==================
  DB79    79             C      setsec:	LD	A,C
  DB7A    32 DEFF        C      	LD	(dsectr),A
  DB7D    C9             C      	RET
                         C      ;-----------------------
                         C      
                         C      ; Einstellen DMA in Reg. BC
                         C      ;===============
  DB7E    ED 43 DF02     C      setdma:	LD	(ddma),BC
BIOS CP/A, Buerocomputer (A5120/30 u. ae.)	MACRO-80 V3.50	25-Oct-85	Page	1-66


  DB82    C9             C      	RET
                         C      ;-----------------------
                         C      
                         C      ; Uebersetzung Sektornummer 
                         C      ;==========================
                         C      ; Translate-Tab-Adr. in DE, Eingangs-Sektornummer in BC,
                         C      ;			    Ausgangs-Sektornummer in HL
                         C      ; Es wird keine Translate-Tabelle benutzt, da die Sektor-
                         C      ; nummernverwaltung verallgemeinert im nicht-Standard-DPB 
                         C      ; enthalten ist (auch fuer physische Sektorlaenge <>128)
                         C      
  DB83                   C      sectran:
  DB83    60             C      	LD	H,B
  DB84    69             C      	LD	L,C
  DB85    23             C      	inc	hl		;Sektoren zaehlen in CP/A ab 1
  DB86    C9             C      	RET
                         C      ;-----------------------
                         C      
                         C      ; Schreiben Sektor
                         C      ;=================
                         C      ; Register C (vom BDOS gestellt):
                         C      ;	=0, wenn normales write
                         C      ;	=1, wenn directory-write (sofort ausgeben)
                         C      ;	=2, wenn Beginn eines neuen Datenblocks (kein preread)
                         C      
  DB87                   C      write:
                         C       IF @write
  DB87    59             C      	ld	e,c		;retten Reg. C
  DB88    3A DEFC        C      	ld	a,(ddrive)
  DB8B    4F             C      	ld	c,a
  DB8C    CD E794        C      	call	dgetpb		;ix:=dpb(ddrive)
  DB8F    28 6B          C      	jr	z,drwerr	;Geraet ex. nicht
                         C       if ramfl
                         C      ;###RAM-Floppy
  DB91    DD CB 0F 7E    C      	bit	dpbfnd,(ix+dpbflg)	;Diskette?
  DB95    C2 E3FA        C      	jp	nz,wrramf	;nein
                         C      ;###
                         C       endif
  DB98    21 DEFB        C      	ld	hl,dflg
  DB9B    CB D6          C      	set	dfwr,(hl)	;Write-Flag setzen
                         C      
                         C      	IF	dbufsz gt 7	;gepufferte Disk E/A
  DB9D    21 DEF2        C      	ld	hl,dbflg
  DBA0    CB C6          C      	set	dfbprr,(hl)	;Annahme preread notwendig
  DBA2    7B             C      	ld	a,e		;A:= Write-Typ
  DBA3    32 DF0A        C      	ld	(dwrtyp),a	;merken Write-Typ
  DBA6    FE 02          C      	cp	2		;write to unallocated?
  DBA8    20 17          C      	jr	nz,chkuna	;nein
  DBAA    DD 7E 03       C      	ld	a,(ix+dpbblm)	;Zahl der 128-Sekt. im Block -1
  DBAD    3C             C      	inc	a
  DBAE    32 DF04        C      	ld	(unacnt),a	;fuer diese Sekt. kein preread
  DBB1    21 DF05        C      	ld	hl,unadev
  DBB4    71             C      	ld	(hl),c
  DBB5    2A DEFD        C      	ld	hl,(dtrack)
  DBB8    22 DF06        C      	ld	(unatrk),hl
  DBBB    3A DEFF        C      	ld	a,(dsectr)
  DBBE    32 DF08        C      	ld	(unasec),a
  DBC1    21 DF04        C      chkuna:	ld	hl,unacnt
  DBC4    7E             C      	ld	a,(hl)
  DBC5    B7             C      	or	a		;noch nicht geschr. Sekt. da?
  DBC6    28 56          C      	jr	z,alloc		;nein
  DBC8    3D             C      	dec	a		;sonst Restzahl -1
BIOS CP/A, Buerocomputer (A5120/30 u. ae.)	MACRO-80 V3.50	25-Oct-85	Page	1-67


  DBC9    77             C      	ld	(hl),a
  DBCA    23             C      	inc	hl
  DBCB    79             C      	ld	a,c
  DBCC    BE             C      	cp	(hl)		;gleiches Geraet?
  DBCD    20 4F          C      	jr	nz,alloc	;nein
  DBCF    23             C      	inc	hl
  DBD0    3A DEFD        C      	ld	a,(dtrack)
  DBD3    BE             C      	cp	(hl)		;gleiche Spur?
  DBD4    20 48          C      	jr	nz,alloc	;nein
  DBD6    23             C      	inc	hl
  DBD7    3A DEFE        C      	ld	a,(dtrack+1)
  DBDA    BE             C      	cp	(hl)
  DBDB    20 41          C      	jr	nz,alloc
  DBDD    23             C      	inc	hl
  DBDE    3A DEFF        C      	ld	a,(dsectr)
  DBE1    BE             C      	cp	(hl)		;gleicher Sektor?
  DBE2    20 3A          C      	jr	nz,alloc	;nein
                         C      ; Vorbereiten naechsten unalloc write-Aufruf
  DBE4    DD BE 00       C      	cp	(ix+dpbspt)	;neue Spur?
  DBE7    38 0A          C      	jr	c,unatr1	;nein
  DBE9    2B             C      	dec	hl
  DBEA    56             C      	ld	d,(hl)
  DBEB    2B             C      	dec	hl
  DBEC    5E             C      	ld	e,(hl)
  DBED    13             C      	inc	de		;unatrk +1
  DBEE    73             C      	ld	(hl),e
  DBEF    23             C      	inc	hl
  DBF0    72             C      	ld	(hl),d
  DBF1    23             C      	inc	hl
  DBF2    AF             C      	xor	a		;Sektor auf Spuranfang
  DBF3    3C             C      unatr1:	inc	a		;naechster Sektor
  DBF4    77             C      	ld	(hl),a
  DBF5    21 DEF2        C      	ld	hl,dbflg
  DBF8    CB 86          C      	res	dfbprr,(hl)	;anzeigen kein preread notw.
                         C      	ENDIF
  DBFA    18 26          C      	jr	drw
                         C      
                         C       ENDIF ;@write
                         C      
                         C      ; Abbruch read/write mit E/A-Fehler
  DBFC    3E 01          C      drwerr:	ld	a,1
  DBFE    C9             C      	ret
                         C      
                         C      ; Lesen Sektor
                         C      ;=============
                         C      
  DBFF                   C      read:
  DBFF    3A DEFC        C      	ld	a,(ddrive)
  DC02    4F             C      	ld	c,a
  DC03    CD E794        C      	call	dgetpb		;ix:=dpb(ddrive)
  DC06    28 F4          C      	jr	z,drwerr	;Geraet ex. nicht
                         C       if ramfl
                         C      ;###RAM-Floppy
  DC08    DD CB 0F 7E    C      	bit	dpbfnd,(ix+dpbflg)	;Diskette?
  DC0C    C2 E41D        C      	jp	nz,rdramf	;nein
                         C      ;###
                         C       endif
  DC0F    21 DEFB        C      	ld	hl,dflg
  DC12    CB 96          C      	res	dfwr,(hl)	;Lesen anzeigen
                         C      
                         C       IF dbufsz gt 7
  DC14    21 DEF2        C      	ld	hl,dbflg
BIOS CP/A, Buerocomputer (A5120/30 u. ae.)	MACRO-80 V3.50	25-Oct-85	Page	1-68


  DC17    CB C6          C      	set	dfbprr,(hl)	;preread notwendig
  DC19    3E 02          C      	ld	a,2
  DC1B    32 DF0A        C      	ld	(dwrtyp),a
                         C      
  DC1E                   C      alloc:
                         C        IF @write
  DC1E    AF             C      	xor	a
  DC1F    32 DF04        C      	ld	(unacnt),a	;Ende unalloc
                         C        ENDIF
                         C      
                         C       ENDIF
                         C      
                         C      ; gemeinsamer Zweig read/write Floppy
                         C      ;------------------------------------
                         C      
  DC22    3A DEFF        C      drw:	ld	a,(dsectr)	;Sektornummer in 1..dpbspt ?
  DC25    3D             C      	dec	a		;ab 0 zaehlen
  DC26    FA DBFC        C      	jp	m,drwerr	;<0, Fehler
  DC29    DD BE 00       C      	cp	(ix+dpbspt)	;<dpbspt?
  DC2C    30 CE          C      	jr	nc,drwerr	;nein, Fehler
                         C       IF dbufsz gt 7
  DC2E    47             C      	ld	b,a		;retten dsectr-1
                         C       ENDIF
  DC2F    DD 7E 0F       C      	ld	a,(ix+dpbflg)
  DC32    E6 03          C      	and	dpbfsm		;Anzahl der abweich. 128er Spuren
  DC34    5F             C      	ld	e,a
  DC35    16 00          C      	ld	d,0
  DC37    2A DEFD        C      	ld	hl,(dtrack)	;verlangte Spur
  DC3A    B7             C      	or	a
  DC3B    ED 52          C      	sbc	hl,de		;im abweichenden Spurformat?
  DC3D    DA DD2E        C      	jp	c,drwsec	;ja, Sektorlaenge 128
                         C      
                         C       IF dbufsz gt 7	;gepufferte Disk E/A
                         C       IF dbufsz lt 12 ;<2**12 =4K Puffer
  DC40    DD 7E 10       C      	ld	a,(ix+dpbslc)	;phys. Sektorlaenge 128?
  DC43    B7             C      	or	a		;d.h. mit Sektorversatz?
  DC44    CA DD2E        C      	jp	z,drwsec	;ja, keine Pufferung sinnvoll
                         C       ENDIF
  DC47    78             C      	ld	a,b
  DC48    DD 56 11       C      	ld	d,(ix+dpbbfm)	;Puffermaske
  DC4B    A2             C      	and	d		;rel. Sekt.nr. des BDOS-Blocks zum Puff.anf.
  DC4C    F5             C      	push	af		;merken fuer move
  DC4D    A8             C      	xor	b		;a ist Sektornr. des Puff.anf.
  DC4E    CB 3F          C      drwbnr:	srl	a		;ermitteln Puffernr in Spur
  DC50    CB 1A          C      	rr	d		;noch Bits in Puffermaske?
  DC52    20 FA          C      	jr	nz,drwbnr	;ja
                         C      ; Test, ob dieser Puffer da ist
  DC54    F5             C      	push	af		;merken Puffernummer
  DC55    21 DF09        C      	ld	hl,dbnb
  DC58    BE             C      	cp	(hl)		;richtige Puffernummer?
  DC59    20 12          C      	jr	nz,dbn		;nein
  DC5B    2A DEFD        C      	ld	hl,(dtrack)	;geforderte Spur
  DC5E    ED 5B DEF4     C      	ld	de,(dbtrk)
  DC62    B7             C      	or	a
  DC63    ED 52          C      	sbc	hl,de		;richtige Spur?
  DC65    20 06          C      	jr	nz,dbn
  DC67    3A DEF3        C      	ld	a,(dbdev)	;zum Puffer gehoeriges Geraet
  DC6A    B9             C      	cp	c		;richtiges Geraet?
  DC6B    28 6C          C      	jr	z,dbmat		;ja, Sektor steht im Puffer
                         C      
  DC6D    C5             C      dbn:	push	bc		;retten ddrive
  DC6E    CD DD11        C      	call	dbtrw		;veraenderten Puffer ausgeben
BIOS CP/A, Buerocomputer (A5120/30 u. ae.)	MACRO-80 V3.50	25-Oct-85	Page	1-69


  DC71    C1             C      	pop	bc		;c:=ddrive
  DC72    21 DEF3        C      	ld	hl,dbdev
  DC75    71             C      	ld	(hl),c
  DC76    2A DEFD        C      	ld	hl,(dtrack)
  DC79    22 DEF4        C      	ld	(dbtrk),hl
  DC7C    CD E794        C      	call	dgetpb		;ix:=dpb(c)
  DC7F    DD 46 10       C      	ld	b,(ix+dpbslc)
  DC82    21 DEF7        C      	ld	hl,dbslc
  DC85    70             C      	ld	(hl),b
  DC86    DD 7E 11       C      	ld	a,(ix+dpbbfm)	;Zahl der 128er Sektoren -1
  DC89    3C             C      	inc	a
  DC8A    87             C      	add	a,a		;CY:=0
  DC8B    04             C      	inc	b		;fuer djnz, falls dpbslc=0
  DC8C    0F             C      dbsnbz:	rrca			;Zahl der phys. Sekt. im Puff.
  DC8D    10 FD          C      	djnz	dbsnbz
  DC8F    57             C      	ld	d,a		;merken
  DC90    AF             C      	xor	a
  DC91    C1             C      	pop	bc		;b:=geforderte Puffernr.
  DC92    C5             C      	push	bc
  DC93    21 DF09        C      	ld	hl,dbnb
  DC96    70             C      	ld	(hl),b
  DC97    04             C      	inc	b
  DC98    05             C      	dec	b		;Puffernr. 0?
  DC99    28 03          C      	jr	z,dbsec0	;ja
  DC9B    82             C      dbsecz:	add	a,d		;0. phys. Sekt. im Puffer
  DC9C    10 FD          C      	djnz	dbsecz		;=dbsnb.*Puffernr.
  DC9E    5F             C      dbsec0:	ld	e,a		;merken Pufferanf.-Sektor
  DC9F    DD 46 10       C      	ld	b,(ix+dpbslc)
  DCA2    DD 7E 00       C      	ld	a,(ix+dpbspt)
  DCA5    04             C      	inc	b		;wegen djnz
  DCA6    87             C      	add	a,a
  DCA7    CB 3F          C      dbsecm:	srl	a		;phys. Sektoranzahl
  DCA9    10 FC          C      	djnz	dbsecm
  DCAB    93             C      	sub	e		;Restsektorzahl auf Spur
  DCAC    BA             C      	cp	d		;>= Zahl zu transferierender?
  DCAD    30 01          C      	jr	nc,dbseco	;ja
  DCAF    57             C      	ld	d,a		;sonst nur Restsektorzahl
  DCB0    1C             C      dbseco:	inc	e		;Sektoren zaehlen ab 1
  DCB1    7B             C      	ld	a,e
  DCB2    32 DEF6        C      	ld	(dbsec),a	;Sektor
  DCB5    7A             C      	ld	a,d
  DCB6    32 DEF8        C      	ld	(dbsnb),a	;Sektorzahl
  DCB9    21 DEF2        C      	ld	hl,dbflg
  DCBC    CB 96          C      	res	dfbwr,(hl)
                         C       if @write
  DCBE    CB 46          C      	bit	dfbprr,(hl)	;muss neuer Puffer gel. werden?
  DCC0    20 14          C      	jr	nz,dbprr	;ja
                         C      ; nur dann kein preread, wenn Rest BDOS-Block >= phys. Puff.
                         C      ; und Rest BDOS-Block auf Pufferanfang beginnt
  DCC2    3A DF04        C      	ld	a,(unacnt)
  DCC5    DD BE 11       C      	cp	(ix+dpbbfm)	;Restzahl-1 >= Puffergr.-1 ?
  DCC8    38 0C          C      	jr	c,dbprr		;nein, preread
  DCCA    3A DEFF        C      	ld	a,(dsectr)	;Sektornr.
  DCCD    3D             C      	dec	a		;ab 0 zaehlen
  DCCE    DD A6 11       C      	and	(ix+dpbbfm)	;rel. Sekt.nr. des
                         C      ;				BDOS-Blocks zum Pufferanfang
  DCD1    20 03          C      	jr	nz,dbprr
  DCD3    32 DF0B        C      	ld	(dberrf),a	;fehlerfrei gel. anzeigen
  DCD6    C4 DD17        C      dbprr:	call	nz,dbtran	;Puffer lesen
                         C       endif
  DCD9                   C      dbmat:	
                         C      
BIOS CP/A, Buerocomputer (A5120/30 u. ae.)	MACRO-80 V3.50	25-Oct-85	Page	1-70


                         C      ; Sektor in/aus Puffer holen
                         C      ;===========================
  DCD9    F1             C      	pop	af		;Puffernr. in Spur wegschm.
  DCDA    F1             C      	pop	af		;128-er Index im Puffer
  DCDB    F5             C      	push	af
  DCDC    1F             C      	rra			;Sektornb*128 berechnen
  DCDD    47             C      	ld	b,a
  DCDE    0E 00          C      	ld	c,0
  DCE0    CB 19          C      	rr	c
  DCE2    21 F282        C      	ld	hl,dbuf
  DCE5    09             C      	add	hl,bc		;Adresse im Puffer
  DCE6    ED 5B DF02     C      	ld	de,(ddma)	;Nutzer-DMA
  DCEA    3A DEFB        C      	ld	a,(dflg)
  DCED    CB 57          C      	bit	dfwr,a		;Schreiben?
  DCEF    28 09          C      	jr	z,dsmove	;nein
  DCF1    3A DEF2        C      	ld	a,(dbflg)
  DCF4    CB D7          C      	set	dfbwr,a		;anzeigen Puffer beschrieben
  DCF6    32 DEF2        C      	ld	(dbflg),a
  DCF9    EB             C      	ex	de,hl
  DCFA    01 0080        C      dsmove:	ld	bc,128
                         C       IF dev eq cpd
                         C       ELSE
  DCFD    ED B0          C      	ldir
                         C       ENDIF
  DCFF    F1             C      	pop	af		;128-Index im Puffer
  DD00    DD BE 11       C      	cp	(ix+dpbbfm)	;letzter Sektor im Puffer
  DD03    28 05          C      	jr	z,dmovew	;ja, Puffer ausgeben
  DD05    3A DF0A        C      	ld	a,(dwrtyp)
  DD08    FE 01          C      	cp	1		;write to directory?
  DD0A    CC DD11        C      dmovew:	call	z,dbtrw		;ja, veraend. Puffer ausgeben
  DD0D    3A DF0B        C      	ld	a,(dberrf)	;Ergebnis letztes dbtran
  DD10    C9             C      	ret
                         C      
                         C      ; Schreiben Puffer, wenn notw.
                         C      ;=============================
  DD11    21 DEF2        C      dbtrw:	ld	hl,dbflg
  DD14    CB 56          C      	bit	dfbwr,(hl)	;Puffer veraendert?
  DD16    C8             C      	ret	z		;nein, Schreiben unterdruecken
                         C      	ENDIF	;dbufsz gt 7
                         C      
                         C      	IF	format or (dbufsz gt 7)
                         C      ; gemeinsamer Zweig Lesen/Schreiben Puffer
                         C      ;=========================================
  DD17                   C      dbtran:	
  DD17    21 DEF2        C      	ld	hl,dbcdb
                         C      	IF	dbufsz gt 7
  DD1A    CD DD31        C      	call	dsktra
  DD1D    32 DF0B        C      	ld	(dberrf),a	;Fehlerflag stellen
  DD20    21 DEF2        C      	ld	hl,dbflg
  DD23    CB 96          C      	res	dfbwr,(hl)	;Puffer ist nicht beschrieben
  DD25    C9             C      	ret
                         C      	ENDIF
                         C      
                         C      	ENDIF
                         C      
                         C      	IF	format
                         C      ; Lesen beliebigen Sektor-Id.
                         C      ;===========================
  DD26    32 DEED        C      dsidtt:	ld	(dfrmtr),a	;Eingang fuer Spur in A
  DD29                   C      dsidtr:
  DD29    21 DEEB        C      	ld	hl,dfrcdb
                         C       IF dsk8mf
BIOS CP/A, Buerocomputer (A5120/30 u. ae.)	MACRO-80 V3.50	25-Oct-85	Page	1-71


                         C       ENDIF
  DD2C    18 03          C      	jr	dsktra		;belieb. SektId lesen
                         C      	ENDIF
                         C      
                         C      
                         C      ; gemeinsamer Zweig Read/Write 128-Sektor einzeln
                         C      ;================================================
  DD2E                   C      drwsec:
  DD2E    21 DEFB        C      	ld	hl,dcdb
                         C      
                         C      ; interner Aufruf phys. Diskettentransfer
                         C      ;----------------------------------------
                         C      ; i HL auf CDB
  DD31                   C      dsktra:
                         C       IF dev eq cpd
                         C       ENDIF
                         C      
                         C      ;*********************************************************
                         C      ; Umkleidung des physischer Disketten-Transfers
                         C      ;*********************************************************
                         C      
                         C      ; Parameter: HL auf CDB mit folgender Struktur:
                         C      ; +0: cdbfl	;Flags	(Struktur angepasst an ft.kom)
  0000                   C      diof00	equ	0	;** frei fuer Anw. ** (frueher Verify nach Schreiben)
  0001                   C      diofid	equ	1	;fest	;=1, wenn nur Sektid. zu lesen
  0002                   C      diofwr	equ	2	;fest	;=1, wenn Schreiben
  0003                   C      dioffm	equ	3	;fest	;=1, wenn temporaer FM-Format erzwungen
  0004                   C      dioftr	equ	4		;=1, wenn keine Fehlermeldung (und -behandlg)
  0005                   C      diofhd	equ	5		;=1, wenn Kopf hochnehmen ("headup")
  0006                   C      diofps	equ	6		;=1, wenn trk,sid,sec schon physisch
  0007                   C      diofs1	equ	7	;fest	;=1, wenn Rueckseite
                         C      
                         C      ; ab hier unwichtig bei "diofhd" in cdbfl =1 (headup)
                         C      ; +1: cdbdev	;logisches Geraet 0 .. dphnb-1
                         C      ; +2: cdbtrk	;log./phys. Spur
                         C      ; +3: cdbsid	;bel./phys. Seite
                         C      ; +4: cdbsec	;log./phys. Sektor
                         C      ; +5: cdbslc	;Sektorlaengencode (0=128, 1=256, 2=512, 3=1024)
                         C      ; +6: cdbsnb	;Anz. zu uebertr. ph. Sekt. (wenn =0, so nur position.)
                         C      ; ab hier nur wichtig, wenn "diofid" in cdbfl =0:
                         C      ; +7,8: cdbdma	;Transferadresse
                         C      
                         C      ; Return, falls nicht "diofhd" in cdbfl =1:
                         C      ;	A=0 (ret z) bei fehlerfrei, sonst A=1 (ret nz) bei cdbfl, "dioftr" =0
                         C      ;	oder Returncode phys. Transfer
                         C      ;	E:=trk, D:=sid ,L:=sec, H:=len
                         C      ;	BC,IX unveraendert
                         C      
  DD31                   C      diskio:	;Aufruf ueber Sprungvektor von BIOS-Erweiterung
  DD31    C5             C      	push	bc
  DD32    11 DF0C        C      	ld	de,diocdb	;CDB des Nutzers auf internen Hilfsspeicher
  DD35    01 0009        C      	ld	bc,diocdl	;da modifiziert
  DD38    D5             C       	push	de
                         C       IF dev eq cpd
                         C       ELSE
  DD39    ED B0          C      	ldir
                         C       ENDIF
  DD3B    E1             C      diskii:	pop	hl		;hl auf diocdb
  DD3C    C1             C      	pop	bc
                         C      
  DD3D    CB 6E          C      	bit	diofhd,(hl)	;Kopf hochnehmen?
                         C       IF disknb ne 0
BIOS CP/A, Buerocomputer (A5120/30 u. ae.)	MACRO-80 V3.50	25-Oct-85	Page	1-72


  DD3F    C2 E1D0        C      	jp	nz,headup	;ja, kein Transfer
                         C       ENDIF
  DD42    C5             C      	push	bc
  DD43    DD E5          C      	push	ix
  DD45    E5             C      	push	hl
  DD46    23             C       	inc	hl
  DD47    4E             C      	ld	c,(hl)		;logisches Laufwerk
  DD48    CD E794        C      	call	dgetpb		;IX auf DPB stellen
  DD4B    E1             C      	pop	hl		;wiederherstellen hl
  DD4C    3E 44          C      	ld	a,'D'		;falls LW nicht ex.
  DD4E    CA DE05        C      	jp	z,dioert	;LW ex. nicht
                         C      
                         C       IF hdsk
                         C       ENDIF
  DD51    CB 76          C      	bit	diofps,(hl)	;trk,sid,sec schon physisch?
  DD53    20 5A          C      	jr	nz,diophy	;ja
                         C       IF dsk8mf
                         C       ENDIF
                         C      ; Track, Side und Sector entpsr. Diskettenformat setzen
  DD55    23             C      	inc	hl
  DD56    23             C      	inc	hl
  DD57    56             C      	ld	d,(hl)		;Track
  DD58    5A             C      	ld	e,d		;merken
  DD59    23             C      	inc	hl
  DD5A    23             C      	inc	hl
  DD5B    4E             C      	ld	c,(hl)		;Sektornummer ab 1
  DD5C    0D             C      	dec	c		;Sektornr. ab 0
  DD5D    DD CB 0F 66    C      	bit	dpbf86,(ix+dpbflg)	;Fortsetzung Dsk. auf Ruecks.?
  DD61    20 0C          C      	jr	nz,diots2	;ja
  DD63    DD CB 0F 6E    C      	bit	dpbfds,(ix+dpbflg)	;ungerade Spuren auf Rueckseite?
  DD67    28 29          C      	jr	z,diotrs	;nein, einseitig
  DD69    CB 3A          C      	srl	d		;Spur halbieren
  DD6B    30 25          C      	jr	nc,diotrs	;gerade Spur, Vorderseite
  DD6D    18 12          C      	jr	diots1		;auf Rueckseite
  DD6F    DD 46 14       C      diots2:	ld	b,(ix+dpbtrk)	;log. Spurzahl
  DD72    CB 38          C      	srl	b		;Spuren auf Vorderseite
  DD74    7A             C      	ld	a,d
  DD75    90             C      	sub	b		;Spur auf Vorderseite?
  DD76    38 1A          C      	jr	c,diotrs	;ja, Spur in d unveraendert lassen
                         C      				;40 ->  0; 41 ->  1; ...; 79 ->  39
                         C      				;77 ->  0; 78 ->  1; ...;153 ->  76
  DD78    DD CB 0F 5E    C      	bit	dpbfsv,(ix+dpbflg)	;Ruecks. von aussen nach innen?
  DD7C    20 02          C      	jr	nz,diots4	;ja
  DD7E    2F             C      	cpl			;40 -> -1; 41 -> -2; ...; 79 -> -40
                         C      				;77 -> -1; 78 -> -2; ...;153 -> -77
  DD7F    80             C      	add	a,b		;40 -> 39; 41 -> 38; ...; 79 ->   0
                         C      				;77 -> 76; 78 -> 75; ...;153 ->   0
  DD80    57             C      diots4:	ld	d,a
  DD81    3A DF0C        C      diots1:	ld	a,(diocfl)
  DD84    CB FF          C      	set	diofs1,a	;vermerken Rueckseite
  DD86    32 DF0C        C      	ld	(diocfl),a
  DD89    DD 7E 13       C      	ld	a,(ix+dpbsn0)	;Versch. der Sektornr. auf Rueckseite
  DD8C    81             C      	add	a,c		;Sektornr. evtl. weiterzaehlen
                         C      ;;;	cp	c		;Weiternummerierung auf Rueckseite?
  DD8D    4F             C      	ld	c,a
                         C      ;;;	jr	nz,diotrs	;ja, dann side:=0
  DD8E    3E 01          C      	ld	a,1		;side:=1
  DD90    18 01          C      	jr	diotss
  DD92    AF             C      diotrs:	xor	a		;side:=0
  DD93    32 DF0F        C      diotss:	ld	(diocsi),a	;phys. Seite setzen
  DD96    7A             C      	ld	a,d
  DD97    32 DF0E        C      	ld	(dioctr),a	;phys. Spur setzen
BIOS CP/A, Buerocomputer (A5120/30 u. ae.)	MACRO-80 V3.50	25-Oct-85	Page	1-73


                         C      
  DD9A    7B             C      	ld	a,e		;log. Spurnr. zurueck nach A
  DD9B    DD E5          C      	push	ix
  DD9D    E1             C      	pop	hl
  DD9E    11 0019        C      	ld	de,dpbstr	;d:=0
  DDA1    19             C      	add	hl,de
  DDA2    DD BE 0D       C      	cp	(ix+dpbofs)	;Systemspur?
  DDA5    38 03          C      	jr	c,diossp	;ja, Sektornummern nicht logisch
  DDA7    59             C      	ld	e,c
  DDA8    19             C      	add	hl,de		;HL entspr. Index in dpbstr
  DDA9    4A             C      	ld	c,d		;c:=0
  DDAA    79             C      diossp:	ld	a,c		;phys. Sektornr. ab 0
  DDAB    86             C      	add	a,(hl)		;+echte Sektornr.
  DDAC    32 DF10        C      	ld	(diocse),a	;phys. Sektor setzen
  DDAF                   C      diophy:
                         C      
                         C      ; i ret, BC, IX im Stack
                         C      ; i cdb auf diocdb
                         C      ; i IX auf DPB
                         C      
  DDAF                   C      diorty:	;interne Wiederholung diskio
  DDAF    DD E5          C      	push	ix		;retten IX fuer evtl. Wiederholung
  DDB1    21 DF0C        C      	ld	hl,diocdb
  DDB4    E5             C      	push	hl
  DDB5    7E             C      	ld	a,(hl)		;side 0/1, -/FM, read/write, -/sectid l.
  DDB6    E6 8E          C       and (1 shl diofs1)+(1 shl dioffm)+(1 shl diofwr)+(1 shl diofid)
  DDB8    47             C      	ld	b,a
  DDB9    DD 7E 18       C      	ld	a,(ix+dpbtyp)	;5"/8", FM/MFM, 40/80, Verify nach Schreiben
  DDBC    E6 78          C       and (1 shl dpbt80)+(1 shl dpbt5z)+(1 shl dpbtdd)+(1 shl dpbtwv) ;aus DPB
  DDBE    A8             C      	xor	b
                         C       IF dsk8mf
                         C       ENDIF
  DDBF    CB 66          C      	bit	dioftr,(hl)	;Fehlerbehandlung unterdruecken?
  DDC1    28 01          C      	jr	z,dionft	;nein
  DDC3    3C             C      	inc	a
  DDC4                   C      dionft:
  DDC4    32 E1ED        C      	ld	(ft.kom),a	
                         C      
  DDC7    23             C      	inc	hl
  DDC8    DD 7E 15       C      	ld	a,(ix+dpbdnr)	;physische LW-Nr.
  DDCB    32 E1F0        C      	ld	(ft.lwn),a
                         C      
  DDCE    23             C      	inc	hl
  DDCF    7E             C      	ld	a,(hl)
  DDD0    32 E1F1        C      	ld	(ft.trk),a
  DDD3    23             C      	inc	hl
  DDD4    7E             C      	ld	a,(hl)
  DDD5    32 E1F2        C      	ld	(ft.sid),a
  DDD8    23             C      	inc	hl
  DDD9    7E             C      	ld	a,(hl)
  DDDA    32 E1F3        C      	ld	(ft.sec),a
  DDDD    23             C      	inc	hl
  DDDE    7E             C      	ld	a,(hl)
  DDDF    32 E1F4        C      	ld	(ft.len),a
  DDE2    23             C      	inc	hl
  DDE3    7E             C      	ld	a,(hl)
  DDE4    32 E1F5        C      	ld	(ft.anz),a
                         C      
  DDE7    DD 7E 12       C      	ld	a,(ix+dpbstp)	;Anzahl der Stepimpulse
  DDEA    32 E1F6        C      	ld	(ft.stp),a
                         C      
  DDED    DD 7E 17       C      	ld	a,(ix+dpbsti)	;Schrittzeit
BIOS CP/A, Buerocomputer (A5120/30 u. ae.)	MACRO-80 V3.50	25-Oct-85	Page	1-74


  DDF0    32 E1F7        C      	ld	(ft.sti),a
                         C      
  DDF3    2A DF13        C      	ld	hl,(diocad)
  DDF6    22 E1EE        C      	ld	(ft.adr),hl
                         C      
                         C       IF stpvar or monitor
  DDF9    CD E5E7        C      	call	delsps		;Sondertasten verbieten
                         C       ENDIF
                         C       IF hdsk
                         C       ELSE
  DDFC    CD DF15        C      	call	floppy		;$$$ phys. Transfer $$$
                         C       ENDIF
                         C       IF stpvar or monitor
  DDFF    CD E5F4        C      	call	delspr		;Sondertasten wieder erlauben
                         C       ENDIF
                         C      
  DE02    E1             C      	pop	hl		;HL wieder auf Paramfeld-Adresse
  DE03    DD E1          C      	pop	ix		;IX wieder auf DPB
                         C      
  DE05                   C      dioert:
                         C      ; Fehlerprotokoll
  DE05    CB 66          C      	bit	dioftr,(hl)	;Fehlerprotokoll und -behandlung  unterdr.?
  DE07    20 33          C      	jr	nz,dtrok	;ja
  DE09    B7             C      	or	a		;Returncode
  DE0A    28 30          C      	jr	z,dtrok		; -> fehlerfrei
  DE0C    FE 52          C      	cp	'R'		;not ready?
  DE0E    CA DDAF        C      	jp	z,diorty	;ja, Wiederholung
                         C      
                         C       IF errvar
  DE11    32 DED2        C      	ld	(derrcd),a	;Fehlercode
  DE14    CB 56          C      	bit	diofwr,(hl)	;war lesen?
  DE16    3E 52          C      	ld	a,'R'
  DE18    28 02          C      	jr	z,derrr		;ja
  DE1A    3E 57          C      	ld	a,'W'
  DE1C    32 DED1        C      derrr:	ld	(derrrw),a
                         C        IF dev eq cpd
                         C        ELSE
  DE1F    21 E1F1        C      	ld	hl,ft.trk	;phys. Spur
  DE22    11 DEDC        C      	ld	de,derrtr
  DE25    CD E6D3        C      	call	mbreco
  DE28    21 E1F2        C      	ld	hl,ft.sid	;Seite
  DE2B    CD E6D3        C      	call	mbreco
  DE2E    21 E1F3        C      	ld	hl,ft.sec	;Sektor
  DE31    CD E6D3        C      	call	mbreco
                         C        ENDIF
  DE34    21 DECF        C      	ld	hl,derrms
  DE37    CD E6B9        C      	call	biosms
                         C       ENDIF
  DE3A    3E 01          C       	ld	a,1		;return mit Fehler
                         C      
  DE3C    B7             C      dtrok:	or	a		;stellen Z-Flag
  DE3D    ED 5B E1F1     C      	ld	de,(ft.trk)	;E:=trk, D:=sid
  DE41    2A E1F3        C      	ld	hl,(ft.sec)	;L:=sec, H:=len
  DE44    DD E1          C      	pop	ix
  DE46    C1             C      	pop	bc
  DE47    C9             C      	ret
                         C      
                         C       IF	format
                         C      
                         C      ; Stellen HL entsprechend Sektorlaengencode in (A)
                         C      ;=================================================
                         C      ; ret nz bei unzulaessigem
BIOS CP/A, Buerocomputer (A5120/30 u. ae.)	MACRO-80 V3.50	25-Oct-85	Page	1-75


  DE48    B7             C      dtrsla:	or	a
  DE49    21 DE5C        C      	ld	hl,dtrsl0
  DE4C    C8             C      	ret	z		;=0 (128)
  DE4D    3D             C      	dec	a
  DE4E    21 DE70        C      	ld	hl,dtrsl1	;=1 (256)
  DE51    C8             C      	ret	z
  DE52    3D             C      	dec	a
  DE53    21 DE84        C      	ld	hl,dtrsl2	;=2 (512)
  DE56    C8             C      	ret	z
  DE57    3D             C      	dec	a
  DE58    21 DE98        C      	ld	hl,dtrsl3	;=3 (1024)
  DE5B    C9             C      	ret
                         C      
                         C       ENDIF
                         C      
                         C      ;************************************************
                         C      ;	Steuertabellen
                         C      ;************************************************
                         C      
                         C      
                         C       IF	format
                         C      ; Modifizierungstabellen entspr. Sektorlaenge und LW-Typ
                         C      ;-------------------------------------------------------
                         C      
                         C      ; Struktur:
                         C      
  0000                   C      dsltrk	equ	0		;benutzte Spuren
  0001                   C      dslspt	equ	dsltrk+1	;Sektoren/Spur
  0002                   C      dsldir	equ	dslspt+1	;Dir-Eintraege
  0003                   C      dsloff	equ	dsldir+1	;2*offset
                         C      				;[+Flag fuer festes offset]
  0001                   C      dslfo	equ	1		;festes offset
  0000                   C      dslvo	equ	0		;offset =0, falls Directory mgl.
  0004                   C      dslblk	equ	dsloff+1	;rel. Adr. Tab. BDOS-Blockgroesse
  0005                   C      dsll	equ	5		;Laenge eines Eintrags
                         C      
                         C      ; Reihenfolge
                         C      ; 5", 40 Tr, SS
                         C      ; 5", 80 Tr, SS
                         C      ; 5", 40 Tr, DS
                         C      ; 5", 80 Tr, DS
                         C       if	disk8
                         C       endif
                         C      
                         C      ; Zur automatischen Bestimmung des Spurformats wird dasjenige
                         C      ; Format der Spur "dlgint" benutzt, alle folgenden Spuren
                         C      ; muessen das gleiche Format haben!
  0003                   C      dlgint	equ	3	;groesste Anzahl SS-Systemspuren
                         C      
                         C      ; 128
  DE5C                   C      dtrsl0:	
  DE5C    28 1A 3F 04    C      	db	40,26,63,2*2+dslvo,dbl1k-$	;CP/M Standard
  DE60    4C             C      
  DE61    50 1A 7F 04    C      	db	80,26,127,2*2+dslvo,dbl2k-$
  DE65    4A             C      
  DE66    50 1A 7F 01    C      	db	80,26,127,2*0+dslfo,dbl2k-$
  DE6A    45             C      
  DE6B    A0 1A 7F 01    C      	db	160,26,127,2*0+dslfo,dbl2k0-$
  DE6F    43             C      
                         C      
                         C      	if	disk8
                         C      	endif
BIOS CP/A, Buerocomputer (A5120/30 u. ae.)	MACRO-80 V3.50	25-Oct-85	Page	1-76


                         C      
                         C      ; 256
  DE70                   C      dtrsl1:	
  DE70    28 20 3F 07    C      	db	40,32,63,2*3+dslfo,dbl2k-$	;SCP Hausformat A51xx
  DE74    3B             C      
  DE75    50 20 3F 07    C      	db	80,32,63,2*3+dslfo,dbl2k-$	;SCP
  DE79    36             C      
  DE7A    50 20 7F 09    C      	db	80,32,127,2*4+dslfo,dbl2k-$
  DE7E    31             C      
  DE7F    A0 20 7F 09    C      	db	160,32,127,2*4+dslfo,dbl2k0-$	;SCP Hausformat PC1715
  DE83    2F             C      
                         C      
                         C      	if	disk8
                         C      	endif
                         C      
                         C      ; 512
  DE84                   C      dtrsl2:	
  DE84    28 24 00 01    C      	db	40,36,0,2*0+dslfo,dbl1k-$
  DE88    24             C      
  DE89    50 24 00 01    C      	db	80,36,0,2*0+dslfo,dbl2k-$
  DE8D    22             C      
  DE8E    50 24 00 01    C      	db	80,36,0,2*0+dslfo,dbl2k-$
  DE92    1D             C      
  DE93    A0 24 00 01    C      	db	160,36,0,2*0+dslfo,dbl2k0-$
  DE97    1B             C      
                         C      
                         C      	if	disk8
                         C      	endif
                         C      	
                         C      ; 1024
  DE98                   C      dtrsl3:	
  DE98    28 28 3F 04    C      	db	40,40,63,2*2+dslvo,dbl1k-$	;CP/A Standard A51xx
  DE9C    10             C      
  DE9D    50 28 7F 04    C      	db	80,40,127,2*2+dslvo,dbl2k-$	;CP/A
  DEA1    0E             C      
  DEA2    50 28 7F 00    C      	db	80,40,127,2*0+dslvo,dbl2k-$	;CP/A
  DEA6    09             C      
  DEA7    A0 28 BF 08    C      	db	160,40,191,2*4+dslvo,dbl2k0-$	;CP/A (und SCP)
  DEAB    07             C      
                         C      
                         C      	if	disk8
                         C      	endif
                         C      
                         C      ; Modifizierungstabellen fuer BDOS-Blockgroesse
  DEAC    03 07 00       C      dbl1k:	db	3,7,0		;Bl. Shift, Bl. Mask, Ext. Mask
  DEAF    04 0F 01       C      dbl2k:	db	4,0fh,1
  DEB2    04 0F 00       C      dbl2k0:	db	4,0fh,0		;fuer Kapazitaet >255
                         C      
                         C      ; log. Sektortranslate-Tabelle fuer 26*128
  DEB5    01 07 0D 13    C      xlt:	db	1,7,13,19,25,5,11,17,23,3,9,15,21
  DEB9    19 05 0B 11    C      
  DEBD    17 03 09 0F    C      
  DEC1    15             C      
  DEC2    02 08 0E 14    C      	db	2,8,14,20,26,6,12,18,24,4,10,16,22
  DEC6    1A 06 0C 12    C      
  DECA    18 04 0A 10    C      
  DECE    16             C      
                         C      
                         C       ENDIF	;format
                         C      
                         C      	include BIOSDSKW
                         C      ;;***************************************************************
BIOS CP/A, Buerocomputer (A5120/30 u. ae.)	MACRO-80 V3.50	25-Oct-85	Page	1-77


                         C      ;;	Arbeitsbereiche logischer Floppy-Treiber im System-RAM *
                         C      ;;***************************************************************
                         C      ;; 03.06.89
                         C      
                         C       IF errvar
                         C      ;; Fehlermeldung Disk I/O Error
                         C      ;;=============================
                         C      ;; Genau so lang (kurz), wie in Statuszeile Platz dafuer da ist!
                         C      ;; und das sind 17 Bytes!
  DECF                   C      derrms:
                         C       IF cpastz
                         C       ELSE
  DECF    0D 0A          C      	db	0dh,0ah
                         C       ENDIF
  DED1    58             C      derrrw:	db	'X'
  DED2    58 3B 54 2C    C      derrcd:	db	'X;T,Si,Se='
  DED6    53 69 2C 53    C      
  DEDA    65 3D          C      
  DEDC    58 58          C      derrtr:	db	'XX'
  DEDE    58 58          C      derrts:	db	'XX'
  DEE0    58 58          C      derrsc:	db	'XX'
                         C       IF cpastz
                         C       ELSE
  DEE2    07 00          C      	db	07h,0
                         C       ENDIF
                         C      
                         C       ENDIF
                         C      
                         C      ;; CDB's
                         C      ;;======
                         C      
                         C      ;;CDB fuer Bestimmung Laufwerksbereitschaft bei Select Disk
                         C      ;;--------------------------------------------------------
  DEE4                   C      drdcdb:
  DEE4    10             C      drdflg:	db	(1 shl dioftr)	;;Lesen, kein Fehlerprotokoll
  DEE5    FF             C      drddev:	db	0ffh		;;Geraet
  DEE6    0000           C      drdtrk:	dw	0		;;Spur
  DEE8    01             C      	db	1		;;Sektor (bel.)
  DEE9    01             C      	db	1		;;Sektorlaengencode (>0, 1..3)
  DEEA    00             C      	db	0		;;Sektoranzahl=0 -> nur Positionieren
                         C      
                         C      	IF	format
                         C      ;; CDB fuer Bestimmung Spurformat
                         C      ;;------------------------------------
  DEEB                   C      dfrcdb:
  DEEB    12             C      dfrflg:	db	(1 shl diofid)+(1 shl dioftr)
                         C      ;;		Lesen Sektorid., kein Fehlerprotokoll
  DEEC    FF             C      dfrmdv:	db	0ffh		;;Geraet
  DEED    FF             C      dfrmtr:	db	0ffh		;;Spur
  DEEE    FF             C      	db	0ffh		;;Seite (bel.)
  DEEF    01             C      	db	1		;;Sektor (bel.)
  DEF0    01             C      	db	1		;;Sektorlaengencode (>0, 1..3)
  DEF1    01             C      	db	1		;;Sektoranzahl (>0)
                         C      	ENDIF
                         C      
                         C      	IF	format or (dbufsz gt 7)
                         C      ;; Puffer-CDB
                         C      ;;-----------
  DEF2                   C      dbcdb:
  DEF2    00             C      dbflg:	db	0
  0000                   C      dfbprr	equ	diof00		;;=1, wenn Puffer erst gelesen 
                         C      ;;				     werden muss
BIOS CP/A, Buerocomputer (A5120/30 u. ae.)	MACRO-80 V3.50	25-Oct-85	Page	1-78


  0002                   C      dfbwr	equ	diofwr		;;=1, wenn Puffer durch
                         C      ;;				     Schreiben veraendert
  0004                   C      dfbtr	equ	dioftr		;;=1, wenn mit Fehlerprotokoll
                         C      ;; restliche Bits immer =0
  DEF3    FF             C      dbdev:	db	0ffh
  DEF4    FF             C      dbtrk:	db	0ffh
  DEF5    FF             C      dbsid:	db	0ffh
  DEF6    FF             C      dbsec:	db	0ffh
  DEF7    FF             C      dbslc:	db	0ffh
  DEF8    FF             C      dbsnb:	db	0ffh
                         C      	IF	dbufsz gt 7
  DEF9    F282           C      dbdma:	dw	dbuf
                         C      	ENDIF
                         C      	ENDIF
                         C      
                         C      ;; CDB fuer ungepufferte E/A
                         C      ;;--------------------------
                         C      
  DEFB                   C      dcdb:
  DEFB    00             C      dflg:	db	0
  0002                   C      dfwr	equ	diofwr 		;;=1, wenn write-Aufruf
                         C      ;; restliche Bits immer =0
  DEFC    00             C      ddrive:	db	0
  DEFD    FF             C      dtrack:	db	0ffh
  DEFE    FF             C      	db	0ffh		;;Seite
  DEFF    FF             C      dsectr:	db	0ffh
  DF00    00             C      	db	0		;;128 Bytes Sektorlaenge
  DF01    01             C      	db	1		;;immer nur 1 Sektor
  DF02    FFFF           C      ddma:	dw	0ffffh
                         C      
                         C       if ramfl
  DEFD                   C      rtrack	equ	dtrack
                         C       endif
                         C      
                         C      ;; Pufferzugriff
                         C       IF @write
                         C       IF dbufsz gt 7
  DF04    00 FF FF FF    C      unacnt:	db	0,0ffh,0ffh,0ffh,0
  DF08    00             C      
  DF05                   C      unadev	equ	unacnt+1
  DF06                   C      unatrk	equ	unacnt+2
  DF08                   C      unasec	equ	unacnt+4
                         C       ENDIF
                         C       ENDIF
                         C       IF dbufsz gt 7
  DF09    FF             C      dbnb:	db	0ffh
  DF0A    FF             C      dwrtyp:	db	0ffh
  DF0B    00             C      dberrf:	db	0		;;Ergebnisflag letztes dbtran
                         C       ENDIF
                         C      	include BIOSDSKB
                         C      ;;***************************************************************
                         C      ;;	Arbeitsbereiche logischer Floppy-Treiber im BIOS-RAM   *
                         C      ;;***************************************************************
                         C       IF dev eq cpd
                         C       ELSE
  DF0C                   C      diocdb:	ds	9,0ffh
                         C       ENDIF
  DF0C                   C      diocfl	equ	diocdb+0
  DF0D                   C      diocde	equ	diocdb+1
  DF0E                   C      dioctr	equ	diocdb+2
  DF0F                   C      diocsi	equ	diocdb+3
  DF10                   C      diocse	equ	diocdb+4
BIOS CP/A, Buerocomputer (A5120/30 u. ae.)	MACRO-80 V3.50	25-Oct-85	Page	1-79


  DF11                   C      diocsl	equ	diocdb+5
  DF12                   C      diocsn	equ	diocdb+6
  DF13                   C      diocad	equ	diocdb+7
  0009                   C      diocdl	equ	9		;;Anzahl der Bytes
                         C      
                         C       IF dev eq cpd
                         C       ELSE
                         C        IF disknb eq 0
                         C        ENDIF
                         C       ENDIF
                                 IF disknb ne 0
                         C      	include BIOSDSKT
                         C      ;*********************************************************
                         C      ; physischer Disketten-Transfer
                         C      ; Aenderungen:
                         C      ; - Es koennen 9 statt bisher 4 phys. Sektoren auf einmal gelesen werden
                         C      ;!-!Schnittstellenaenderung bei SektId lesen:
                         C      ;   ft.anz muss <>0 sein (zuvor beliebig, bei =0 kein Transfer)
                         C      ;   ft.len muss 0..3 sein (zuvor beliebig, bei >3 fehlerhafte Tabellenmodif.)
                         C      ;   ft.kom, Bit 7 eingefuehrt: =0 Vorderseite, =1 Rueckseite
                         C      ;   ft.kom, Bit 0 (Verify nach Schreiben) auf Bit 6 verlegt
                         C      ;   ft.kom, Bit 0 =1 bedeutet "keine Fehlerwiederholung"
                         C      ; - Floppy-Treiber auch fuer Variante K5120/22 generierbar
                         C      ; 06.07.88
                         C      ; - Motor-Start-Wait von 254 auf 252 veraendert (2.5 Umdrehungen)
                         C      ;   (ist bei einigen Laufwerken wegen PreReady notwendig)
                         C      ; 03.11.22
                         C      ; - Variante K5122 eingefuegt
                         C      ; 25.09.89
                         C      ; - bei MFS 1.2 bei Mehr-Sektor-Transfer "Fault reset" zwischen den Sektoren
                         C      ;*********************************************************
                         C      
                         C      ; Aufruf:
                         C      ; -------
                         C      ; Bereitstellung der Parameter auf den Bytes:
                         C      
                         C      ;       ft.kom:	db	0	; bit0 - =1 ohne Fehlerwiederholung
                         C      ;				     1 - =1 lesen ft.len von beliebigem Sektor
                         C      ;				     2 - =0 lesen ; =1 schreiben Sektor(en)
                         C      ;				     3 - =0-FM; =1-MFM   (5"FM nur bei PC1715)
                         C      ;				     4 - =0-8"; =1-5"
                         C      ;				     5 - =0- 40-Spur-Laufwerk; =1- 80-Spur-LW
                         C      ;				     6 - =1 bei verify nach schreiben
                         C      ;				     7 - =0 Vorderseite, =1 Rueckseite
                         C      ;	ft.adr: dw	0	; Transferadresse
                         C      ;	ft.lwn: db	0	; 0..3 phys. Laufwerksnummer
                         C      ;	ft.trk: db	0	; 0..  track
                         C      ;	ft.sid: db	0	; 0..ff side (side=0 auf Rueckseite moeglich!)
                         C      ;	ft.sec: db	0	; 0..  sector (beliebig bei SektId lesen)
                         C      ;	ft.len: db	0	; 0..3 Sektorlaenge (auch 0..3 bei SektId les.)
                         C      ;	ft.anz: db	0	; 0..9 Anzahl der zu uebertragenden Sektoren
                         C      ;				;      =0: nur Positionieren
                         C      ;				;      (<>0 bei SektId lesen)
                         C      ;       ft.stp: db	0	;      Anzahl der Stepimpulse von Spur zu Spur
                         C      ;	ft.sti: db	0	;      Schrittzeit von Spur zu Spur
                         C      ;				;      in 0,1ms Einheiten
                         C      ;
                         C      ;	call	floppy
                         C      ;       ...			; in A steht Ergebniskode
                         C      ;				; alle Register (auch IX) undef.
                         C      ;
                         C      ; Ergebniskode (in Reg. A):
BIOS CP/A, Buerocomputer (A5120/30 u. ae.)	MACRO-80 V3.50	25-Oct-85	Page	1-80


                         C      ;	00h kein Fehler (Z-Flag nicht von floppy gesetzt)
                         C      ;	'C' CRC-Fehler
                         C      ;	'D' LW nicht existent
                         C      ;	'R' Geraet nicht bereit, aber existent
                         C      ;	'L' unzulaessige Transferlaenge
                         C      ;	'S' Sektor nicht gefunden
                         C      ;	'T' Spurnummer zu gross
                         C      ;	'U' keine Marke gefunden
                         C      ;	'W' Diskette schreibgeschuetzt
                         C      
                         C      ; Paramfeld wird an folgenden Stellen veraendert:
                         C      ;  Komm. "Lesen Sekt,Id.":	ft.trk .. ft.len gestellt
                         C      ;  Komm. "Schreiben mit Verify":ft.kom, bit 2 geloescht
                         C      ;**************************************************
                         C      
  0004                   C      maxlw	equ	4		; Anzahl der Laufwerke (1..4)
                         C      
                         C      ; Adressen der Floppy-Karte
                         C      ;==========================
                         C      
                         C       IF (fdc eq k5120) or (fdc eq k5122)
                         C      ;Steuer-PIO
  0010                   C      flcoad    equ  10h  ;PORT A
  0011                   C      flcoac    equ  11h
  0012                   C      flcobd    equ  12h  ;PORT B
  0013                   C      flcobc    equ  13h
                         C      
                         C      ;Daten-PIO
  0014                   C      fldaad    equ  14h  ;Port A Schreib-Daten
  0015                   C      fldaac    equ  15h
  0016                   C      fldabd    equ  16h  ;Port B Lese-Daten
  0017                   C      fldabc    equ  17h
                         C      
                         C      ;Select-Latch
  0018                   C      flsel     equ  18h  ;Bit 7..4 /Sel LW3..0;Bit 3..0  /LCK  LW 3..0
                         C      ;
                         C       ENDIF
                         C      
                         C       IF (fdc eq f1715)
                         C       ENDIF
                         C      
                         C      ;; Legende AMF:
                         C      ;;   Port A
                         C      ;;  | 7 | 6 | 5 | 4 | 3 | 2 | 1 | 0 |
                         C      ;;    |   |   |   |   |   |   |   |__ A  /WE  0-Schreiben ein
                         C      ;;    |   |   |   |   |   |   |______ A   MK  lesen  0-MFM-A1 Erkennung
                         C      ;;    |   |   |   |   |   |                          1-FM-Mark., MFM-C2 Erkenn.
                         C      ;;    |   |   |   |   |   |               schreiben  0-Takt fuer MFM
                         C      ;;    |   |   |   |   |   |                          1-Marken FM und A1 MFM
                         C      ;;    |   |   |   |   |   |__________ A  /SIDE 0-Kopf Seite 1; 1-Kopf Seite 0
                         C      ;;    |   |   |   |   |        oder   A  /FR   0-Fault reset;  1-kein FR
                         C      ;;    |   |   |   |   |______________ A  /STR 0-AMF aktiv
                         C      ;;    |   |   |   |                           1-AMF ausgeschaltet
                         C      ;;    |   |   |   |__________________ A   MK1 lesen  0-Informationen einlesen
                         C      ;;    |   |   |                                      1-nur 1 einlesen
                         C      ;;    |   |   |                           schreiben  0-FM-Daten schreiben
                         C      ;;    |   |   |                                      1-MFM und FM-Marken schr.
                         C      ;;    |   |   |______________________ A   MR, SD     0-steppen Richtung aussen
                         C      ;;    |   |                                          1-Marke-erkannt loeschen
                         C      ;;    |   |                                            steppen Richtung innen
                         C      ;;    |   |__________________________ A  /HL         0-Kopf geladen
                         C      ;;    |                                              1-Kopf entladen
BIOS CP/A, Buerocomputer (A5120/30 u. ae.)	MACRO-80 V3.50	25-Oct-85	Page	1-81


                         C      ;;    |______________________________ A  /ST         0-Stepsignal an LW ein
                         C      ;;                                                   1-Stepsignal an LW aus
                         C      ;;
                         C      ;;  Port B
                         C      ;;  | 7 | 6 | 5 | 4 | 3 | 2 | 1 | 0 |
                         C      ;;    |   |   |   |   |   |   |   |__ E  /RDY  0-Laufwerk bereit
                         C      ;;    |   |   |   |   |   |   |                1-Laufwerk nicht bereit
                         C      ;;    |   |   |   |   |   |   |______ E  /MKE  0-Marke erkannt
                         C      ;;    |   |   |   |   |   |                    1-Marke noch nicht erkannt
                         C      ;;    |   |   |   |   |	 oder PC1715  E   MKE  1-Marke erkannt
                         C      ;;    |   |   |   |   |   | u.K5122            0-Marke noch nicht erkannt
                         C      ;;    |   |   |   |   |   |__________ E  /SYN  ???? (K5120)
                         C      ;;    |   |   |   |   |  oder K5122   A  /HF   0-Takt fuer 8" MFM
                         C      ;;    |   |   |   |   |                        1-Takt fuer 5" MFM und 8" FM
                         C      ;;    |   |   |   |   |  oder PC1715: A   MFM  0-FM-Aufzeichnung
                         C      ;;    |   |   |   |   |                        1-MFM-Aufzeichnung
                         C      ;;    |   |   |   |   |______________ A   PRE  0-schreiben ohne Prekompensation
                         C      ;;    |   |   |   |                            1-schreiben mit         "
                         C      ;;    |   |   |   |__________________ E  /FA   0-Fehler in der AMF aufgetreten
                         C      ;;    |   |   |                                1-kein Fehler aufgetreten
                         C      ;;    |   |   |          oder PC1715: A   FO   0-5"-Disketten
                         C      ;;    |   |   |                                1-8"-Disketten
                         C      ;;    |   |   |______________________ E  /WP   0-Schreibschutz ist ein
                         C      ;;    |   |                                    1-kein Schreibschutz
                         C      ;;    |   |__________________________ E  /FW   0-Laufwerk meldete Schreibfehler
                         C      ;;    |                                        1-Laufwerk meldete keinen Fehler
                         C      ;;    |______________________________ E  /T0   0-Kopf steht auf Spur 0
                         C      ;;                                             1-Kopf steht nicht auf Spur 0
                         C      
                         C      ;$$$$$$$$$$$$$$$$$$$$$$$$$$$$$$$$$$$$$$$$$$$$$$$$$$$$$$$$$$$$$$$
                         C      ;	FLOPPY-Treiber
                         C      ;$$$$$$$$$$$$$$$$$$$$$$$$$$$$$$$$$$$$$$$$$$$$$$$$$$$$$$$$$$$$$$$
  DF15                   C      floppy:
                         C      
                         C      ; Anfangswerte stellen
  DF15    3A E1ED        C      	ld	a,(ft.kom)
  DF18    E6 01          C      	and	1		;Fehlerwiederholung?
  DF1A    20 02          C      	jr	nz,setecr	;nein, A=0+1 (keine Wiederholung)
  DF1C    3E 10          C      	ld	a,15+1
  DF1E    32 E213        C      setecr:	ld	(crerc),a	; Fehlerzaehler fuer CRC-Fehlerwiederholungen
  DF21    20 02          C      	jr	nz,setesp
  DF23    3E 05          C      	ld	a,4+1		; Fehlerzaehler fuer Spurfindewiederholungen
  DF25    32 E214        C      setesp:	ld	(sperc),a
                         C      
                         C      ; Laufwerksnummer pruefen
  DF28    3A E1F0        C      	ld	a,(ft.lwn)	; LW
                         C      ;	cp	maxlw		; LW < groesster LW-Nr.?
                         C      ;	jr	nc,nolw		; -> nein, Fehler: LW nicht existent
  DF2B    4F             C      	ld	c,a		; merken LW fuer Motor-an-Test
  DF2C    47             C      	ld	b,a		; fuer djnz
  DF2D    B7             C      	or	a		; LW=0?
  DF2E    3A E216        C      	ld	a,(lwexis)
  DF31    28 04          C      	jr	z,drv0		; ->ja
  DF33    0F             C      sp13: 	rrca
  DF34    0F             C      	rrca
  DF35    10 FC          C      	djnz	sp13
  DF37    E6 03          C      drv0: 	and	3
  DF39    20 05          C      	jr	nz,drv0a
                         C      
  DF3B    3E 44          C      nolw: 	ld	a,'D'		; LW nicht existent
  DF3D    C3 E0E9        C      	jp	fehret		; -> Fehler
                         C      
BIOS CP/A, Buerocomputer (A5120/30 u. ae.)	MACRO-80 V3.50	25-Oct-85	Page	1-82


  DF40                   C      drv0a:
                         C      ; LW selektieren und Motor einschalten
  DF40    AF             C      	xor	a
  DF41    32 E1BE        C      	ld	(pretx+1),a	;Motorabschaltung verhindern
  DF44    3D             C      	dec	a		;A:=255
  DF45    CD E1A5        C      	call	fl.sto		;Index-Ueberwachung ein
  DF48    CB D9          C      	set	3,c		; Motor-an-Bit setzen
  DF4A    21 E217        C      	ld	hl,alwnr
  DF4D    7E             C      	ld	a,(hl)
  DF4E    B9             C      	cp	c		; ist es das richtige LW und Motor an?
  DF4F    3E 6A          C      	ld	a,+pvrw2-(xpvrw+2) ; jr z,pvrw2 (keine Vertikalstab.)
  DF51    28 42          C      	jr	z,dskmon	; ->ja, Kopf ist noch aufgesetzt
                         C      ; falsches LW oder Motor des LW aus
  DF53    CD E1D8        C      	call	flres		; alte Spurnr. merken
                         C      
                         C      ; neues LW anwaehlen, Motor einschalten und alte Spurnr. holen
  DF56    71             C      	ld	(hl),c		; neues LW, Motor-an-Bit
  DF57    EB             C      	ex	de,hl		;merken ^alwnr
  DF58    CB 99          C      	res	3,c		; alte Spurnr. holen
  DF5A    06 00          C      	ld	b,0
  DF5C    21 E219        C      	ld	hl,spnrl
  DF5F    09             C      	add	hl,bc
  DF60    7E             C      	ld	a,(hl)
  DF61    32 E218        C      	ld	(aspnr),a
  DF64    41             C      	ld	b,c
  DF65    04             C      	inc	b
  DF66    3E 77          C      	ld	a,077h		; LW-Anwahlbyte bilden (mit Lock)
  DF68    07             C      nfdei2: rlca
  DF69    10 FD          C      	djnz	nfdei2
  DF6B    D3 18          C      	out	(flsel),a	; Laufwerk selektieren (und evtl. Motor ein)
                         C       IF fdc eq f1715
                         C       ENDIF
  DF6D    3E A9          C      	ld	a,10101001b	; Kopf laden, Fault reset
  DF6F    D3 10          C      	out	(flcoad),a
                         C      
                         C      ; Motor-Start
  DF71    2E FD          C      	ld	l,252+1		;von 255 auf 252, d.h. mind 2 Umdrehungen?
  DF73    3A E1ED        C      	ld	a,(ft.kom)
  DF76    CB 67          C      	bit	4,a		;5"?
  DF78    28 06          C      	jr	z,dskmo1	;nein
  DF7A    CB 6F          C      	bit	5,a		;5" 40 Spur?
  DF7C    20 02          C      	jr	nz,dskmo1	;nein
  DF7E    2E FB          C      	ld	l,250+1		;von 255 auf 250,
                         C      				; d.h. mind. 4 volle Umdrehungen?
                         C      				;(bei MFS 1.2 kommt evtl. ready zu frueh)
  DF80                   C      dskmo1:
  DF80    3A E1B6        C      dskdaw:	ld	a,(fl.zto)	;Index-Interrupt-Zaehler
  DF83    BD             C      	cp	l		;entprechend viele Umdrehungen vorbei?
  DF84    38 0D          C      	jr	c,dskda		;ja
  DF86    0D             C      	dec	c		; warten, bis Diskette eingeschoben
  DF87    20 F7          C      	jr	nz,dskdaw
  DF89    10 F5          C      	djnz	dskdaw
  DF8B    EB             C      	ex	de,hl
  DF8C    CB 9E          C      	res	3,(hl)		;loeschen Motor an Bit
  DF8E    3E 52          C      	ld	a,'R'		;LW nicht bereit
  DF90    C3 E0E9        C      	jp	fehret
  DF93    3E 61          C      dskda:	ld	a,+pvrw1-(xpvrw+2) ; jr z,pvrw1 (mit Vertikal-Stabil.)
  DF95                   C      dskmon:
  DF95    32 DFDD        C      	ld	(xpvrw+1),a	; Vertikal-Stabilisierung ein/aus
                         C      
                         C      
                         C       IF dsk8fm+dsk8mf+dsk5fm; Standard ist 5"MFM
BIOS CP/A, Buerocomputer (A5120/30 u. ae.)	MACRO-80 V3.50	25-Oct-85	Page	1-83


                         C       ELSE
                         C       IF @write
  DF98    21 E3AD        C      	ld	hl,diwmfm
  DF9B    22 E312        C      	ld	(dioop),hl	;Schreiben einstellen (falls Lesen war)
                         C       ENDIF
                         C       ENDIF
                         C       if dsk80
  DF9E    3A E1ED        C      	ld	a,(ft.kom)
                         C       if dsk8fm+dsk8mf
                         C       endif
  DFA1    CB 6F          C      	bit	5,a		;80-Spur-LW?
  DFA3    3E 19          C      	ld	a,25		;Spur, ab der mit Praekomp.
  DFA5    28 02          C      	jr	z,dprec2	;nein
  DFA7    3E 29          C      	ld	a,41
  DFA9    32 E063        C      dprec2:	ld	(dpretr),a
  DFAC                   C      dprecn:
                         C       endif
                         C      
                         C      ; modifizieren entspr. phys. Sektorlaenge
  DFAC    3A E1F4        C      	ld	a,(ft.len)
  DFAF    32 E2C1        C      	ld	(sidlen),a
  DFB2    21 E227        C      	ld	hl,dsln0-dslnl
  DFB5    47             C      	ld	b,a
  DFB6    04             C      	inc	b
  DFB7    11 0009        C      	ld	de,dslnl
  DFBA    19             C      dtrsll:	add	hl,de
  DFBB    10 FD          C      	djnz	dtrsll
  DFBD    EB             C      	ex	de,hl
  DFBE    21 E21D        C      	ld	hl,dslnmt	;Tabelle der Modif.adr.
  DFC1    CD E146        C      	call	flmodf
                         C      
                         C      ; Kopf positionieren
  DFC4    21 E1F1        C      	ld	hl,ft.trk	; gewuenschte Spur
  DFC7    7E             C      	ld	a,(hl)
  DFC8    B7             C      	or	a		;Spur 0?
  DFC9    20 0D          C      	jr	nz,npost0	;nein
  DFCB    3A E1F5        C      	ld	a,(ft.anz)	;Sektorzahl
  DFCE    B7             C      	or	a		;nur positionieren auf Spur 0 (FORMAT-Progr.)
  DFCF    28 4F          C      	jr	z,trk0		;ja, Spur 0 immer ueber Recalibrate
  DFD1    3A E1ED        C      	ld	a,(ft.kom)
  DFD4    CB 4F          C      	bit	1,a		;Lesen Sekt.id Spur 0?
  DFD6    20 53          C      	jr	nz,trk0s	;ja, Lesen Sektid Spur 0 ueber Recalibrate
  DFD8    3A E218        C      npost0:	ld	a,(aspnr)	; stimmt Spur?
  DFDB    BE             C      	cp	(hl)
  DFDC    28 61          C      xpvrw:	jr	z,pvrw1		; -> ja, Kopf evtl. vertikal stabilisieren
                         C      				; auf jr z,pvrw2, wenn Kopf noch aufgesetzt
  DFDE                   C      spprty:				;Wiederholung bei fehlerhafter Spur
                         C      ; Positionierung auf ft.trk
  DFDE    3A E1F1        C      spe: 	ld	a,(ft.trk)
  DFE1    06 8F          C      	ld	b,08fh		; stepout-Befehl
  DFE3    21 E218        C      	ld	hl,aspnr
  DFE6    BE             C      	cp	(hl)		; auf richtiger Spur angekommen?
  DFE7    28 56          C      	jr	z,phrw		; -> ja, Kopf horizontal stabilisieren
  DFE9    38 0D          C      	jr	c,spre		; -> stepout
  DFEB    FE 55          C      xmaxtr: cp	85		; Spur zu gross?
  DFED    38 05          C      	jr	c,spve		; -> nein, stepin
  DFEF    3E 54          C      	ld	a,'T'		; Fehler: Spurnr. zu gross
  DFF1    C3 E0E9        C      	jp	fehret
                         C      
                         C      ; stepin
  DFF4    06 AF          C      spve:	ld	b,0afh		; stepin-Befehl
  DFF6    34             C      	inc	(hl)		; alte Spurnr. erhoehen
BIOS CP/A, Buerocomputer (A5120/30 u. ae.)	MACRO-80 V3.50	25-Oct-85	Page	1-84


  DFF7    34             C      	inc	(hl)		; wegen stepout-dec
                         C      
                         C      ; stepout
  DFF8    35             C      spre: 	dec	(hl)		; alte Spurnr. verringern
  DFF9    CD DFFE        C      	call	step
  DFFC    18 E0          C      	jr	spe
                         C      
                         C      ; steppen
  DFFE    3A E1F6        C      step: 	ld	a,(ft.stp)	; Anzahl der Stepimpulse pro Step
  E001    0E 10          C      step0: 	ld	c,flcoad
  E003    ED 41          C      	out	(c),b		; select direction
                         C      ;;;	push	bc
                         C      ;;;	ld	b,0
                         C      ;;;step1: 	djnz	step1		; 1,3ms warten
                         C      ;;;	pop	bc
  E005    C5             C      step2: 	push	bc
  E006    CB B8          C      	res	7,b
  E008    F3             C      	di			;verhindern Unterbrechung
  E009    ED 41          C      	out	(c),b
  E00B    CB F8          C      	set	7,b
  E00D    ED 41          C      	out	(c),b		; step
  E00F    FB             C      	ei
  E010    ED 4B E1F7     C      	ld	bc,(ft.sti)	; 13,2 / 11,6 / 3,0 ms Schrittzeit
  E014    06 13          C      stepw1: ld	b,19		;(19*13)/(256*9600)=0.0001
  E016    10 FE          C      stepw: 	djnz	stepw		;0.1 ms warten
  E018    0D             C      	dec	c
  E019    20 F9          C      	jr	nz,stepw1
  E01B    C1             C      	pop	bc
  E01C    3D             C      	dec	a
  E01D    20 E6          C      	jr	nz,step2
  E01F    C9             C      	ret
                         C      
                         C      ; Spur 0 anfahren (Recalibrate)
  E020    06 02          C      trk0:	ld	b,2		; nach innen, falls auf Spur -1
  E022    C5             C      trk0i:	push	bc
  E023    06 AF          C      	ld	b,0afh	 	; stepin
  E025    CD DFFE        C      	call	step
  E028    C1             C      	pop	bc
  E029    10 F7          C      	djnz	trk0i
  E02B    DB 12          C      trk0s:	in	a,(flcobd)
  E02D    07             C      	rlca			; Spur 0 erreicht?
  E02E    30 09          C      	jr	nc,trk0f	; -> ja
  E030    06 8F          C      	ld	b,08fh		; stepout-Befehl
  E032    3E 01          C      	ld	a,1		; in phys. Schritten
  E034    CD E001        C      	call	step0
  E037    18 F2          C      	jr	trk0s
  E039    AF             C      trk0f: 	xor	a
  E03A    32 E218        C      	ld	(aspnr),a	; aktuelle Spurnr ist 0
  E03D    18 9F          C      	jr	spprty
                         C      
                         C      
                         C      ; Kopf stabilisieren (horizontal und vertikal)
  E03F                   C      pvrw1:	; Kopf vertikal stabilisieren
  E03F                   C      phrw:	; Kopf horizontal (und evtl. auch vertikal) stabilisieren
  E03F    3E 32          C      	ld	a,50		; 50 ms (fuer alle Laufwerkstypen)
  E041    06 BD          C      phrww1: ld	b,189		; (189*13)/(256*9600)=0.001
  E043    10 FE          C      phrww: 	djnz	phrww		; 1 ms warten
  E045    3D             C      	dec	a
  E046    20 F9          C      	jr	nz,phrww1
  E048                   C      pvrw2:	; Kopf war aufgesetzt und Spur stimmte auch - keine Stabilis.
                         C      
  E048                   C      rdwr:
BIOS CP/A, Buerocomputer (A5120/30 u. ae.)	MACRO-80 V3.50	25-Oct-85	Page	1-85


                         C      ; Anfangswerte fuer Transfer der physischen Sektoren
  E048    3A E1F5        C      	ld	a,(ft.anz)	; Anzahl der zu uebertragenden phys. Sektoren
  E04B    32 E2B6        C      	ld	(secan1),a
  E04E    32 E158        C      	ld	(secanz),a	; fuer CRC-Berechnung
                         C      
  E051    3A E1F1        C      	ld	a,(ft.trk)	; Spur
  E054    32 E2BD        C      	ld	(sidtr),a
  E057    21 E1F6        C      	ld	hl,ft.stp
  E05A    CB 46          C      	bit	0,(hl)		;Doppelschritte?
  E05C    28 01          C      	jr	z,dprec1	;nein
  E05E    87             C      	add	a,a		;sonst phys. Spur verdoppeln
  E05F                   C      dprec1:
                         C      ; evtl. Precompensation einschalten
  E05F    01 0412        C      	ld	bc,00000100b*256+flcobd
  E061                   C      dfrcod	equ	$-1		; Frequenzcode
  E062    FE 19          C      	cp	25		; Spur ab der mit writeprecomp.
  E063                   C      dpretr	equ	$-1
  E064    38 02          C      	jr	c,prec		; <, ohne Precompensation
  E066    CB D8          C      	set	3,b		; >= , mit
  E068    ED 41          C      prec: 	out	(c),b
                         C      
  E06A    3A E1F3        C      	ld	a,(ft.sec)	; erste zu uebertr. Sektornr.
  E06D    32 E2C0        C      	ld	(sidsec),a
  E070    3A E1F2        C      	ld	a,(ft.sid)
  E073    32 E2BE        C      	ld	(sidsid),a
                         C      
                         C       IF dskds ; double sided
                         C      ; evtl. side 1 anwaehlen vorbereiten
  E076    3A E1ED        C      	ld	a,(ft.kom)
  E079    21 E254        C      	ld	hl,dsidmt
  E07C    46             C      	ld	b,(hl)
  E07D    23             C      dsidmz:	inc	hl
  E07E    5E             C      	ld	e,(hl)
  E07F    23             C      	inc	hl
  E080    56             C      	ld	d,(hl)
  E081    EB             C      	ex	de,hl
  E082    CB 7F          C      	bit	7,a		; side 0?
  E084    28 04          C      	jr	z,pside0	; ja
  E086    CB 96          C      	res	2,(hl)		; side 1 einstellen
  E088    18 02          C      	jr 	pside1
  E08A    CB D6          C      pside0:	set	2,(hl)
  E08C    EB             C      pside1:	ex	de,hl
  E08D    10 EE          C      	djnz	dsidmz
  E08F    CB 6F          C      	bit	5,a		;40-Spur LW?
  E091    20 03          C      	jr	nz,pside2	;nein
  E093    EB             C      	ex	de,hl		;diom11
  E094    CB 96          C      	res	2,(hl)		;fault reset zwischen den Sektoren
  E096                   C      pside2:
                         C       ENDIF
                         C      
                         C      ; evtl. nur Lesen Sektor-Id.
  E096    3A E1ED        C      	ld	a,(ft.kom)
  E099    CB 4F          C      	bit	1,a		; Lesen Sekt.Id?
  E09B    21 E2AE        C      	ld	hl,dio
  E09E    28 03          C      	jr	z,srdsid	; -> nein
  E0A0    21 E314        C      	ld	hl,diotsr
  E0A3    22 E26E        C      srdsid:	ld	(diortn),hl
                         C      
                         C       IF @write
  E0A6    3A E1ED        C      	ld	a,(ft.kom)	; Schreiben?
  E0A9    CB 57          C      	bit	2,a
  E0AB    20 08          C      	jr	nz,writpt	; -> ja, Schreibroutine steht auf dioop
BIOS CP/A, Buerocomputer (A5120/30 u. ae.)	MACRO-80 V3.50	25-Oct-85	Page	1-86


                         C       ENDIF
  E0AD    21 E369        C      	ld	hl,diord
  E0B0    22 E312        C      	ld	(dioop),hl	; read einstellen
                         C      
                         C       IF @write
  E0B3    18 22          C      	jr	dtrdyt
  E0B5                   C      writpt:		; pruefen, ob Schreiben erlaubt ist
  E0B5    DB 12          C      	in	a,(flcobd)
  E0B7    CB 6F          C      	bit	5,a		; /WP
  E0B9    3E 57          C      	ld	a,'W'		; Fehler: write protected
  E0BB    CA E0E9        C      	jp	z,fehret
                         C      
                         C      ; CRC-Zeichen der zu schreibenden Daten berechnen und in crcber ablegen
  E0BE    2A E1EE        C      	ld	hl,(ft.adr)
  E0C1    DD 21 E1F8     C      	ld	ix,crcber	; Pointer auf 1. Daten-CRC stellen
  E0C5    DD 36 00 FB    C      crcbes: ld	(ix),0fbh	; Datenbeginn
  E0C9    CD E168        C      	call	crcbd		; CRC eines phys. Sektors berechnen
  E0CC    DD 72 00       C      	ld	(ix+0),d
  E0CF    DD 73 01       C      	ld	(ix+1),e	; ... und ablegen
  E0D2    CD E153        C      	call	crcnb		; weiterer phys. Sektor?
  E0D5    20 EE          C      	jr	nz,crcbes	; -> ja
                         C       ENDIF ;@write
                         C      
                         C      
                         C      ; Disk inzwischen ready?
                         C      
  E0D7                   C      dtrdyt:
  E0D7    DB 12          C      dtrdyz:	IN	A,(flcobd)
  E0D9    1F             C      	RRA			;ready-bit =0?
  E0DA    38 FB          C      dtrdyw:	JR	C,dtrdyz	;nein, 5" Disk not ready
                         C      				;auf jr c,$+2 modif bei 8"
                         C      
  E0DC    3E 05          C      	ld	a,5
  E0DE    CD E1A5        C      	call	fl.sto		;bei evtl. Fehlerwiederholung
                         C      				; timeout-Wert wieder hochstellen
                         C      				; fuer Ueberwachung auf fehlende Marke
  E0E1    3A E1F5        C      	ld	a,(ft.anz)	;Sektorzahl
  E0E4    B7             C      	or	a		; nur positionieren?
  E0E5    C2 E267        C      	jp	nz,diorun	; -> nein, Start des Transfers
                         C      
                         C      ; kein Fehler aufgetreten
  E0E8    AF             C      noerr:	xor	a
                         C      
                         C      ; Fertigmelden, Ergebnis in A
  E0E9    F5             C      fehret:	push	af
  E0EA    21 E1BE        C      	ld	hl,pretx+1	;Motorabschaltung ueber Index-Interrupt
  E0ED    36 0B          C      	ld	(hl),pret3-pret4;jr pret4
  E0EF    3E 14          C      	ld	a,20		;nach 20*200ms = 4 sec
  E0F1    CD E1A5        C      	call	fl.sto
  E0F4    F1             C      	pop	af
  E0F5    C9             C      	ret
                         C      
                         C      ; normale Beendigung
                         C      ;===================
                         C      
                         C      ; Schreiben
  E0F6    21 E1ED        C      dtrwre:	ld	hl,ft.kom
  E0F9    CB 76          C      	bit	6,(hl)		;Kontrollesen?
  E0FB    28 EB          C      	jr	z,noerr		;nein, fertig
  E0FD    CB 96          C      	res	2,(hl)		;sonst schreiben loeschen (d.h. auf lesen)
  E0FF    C3 E048        C      	jp	rdwr		;und auf gleichen Puffer zuruecklesen
                         C      
BIOS CP/A, Buerocomputer (A5120/30 u. ae.)	MACRO-80 V3.50	25-Oct-85	Page	1-87


                         C      ; Lesen
  E102    2A E1EE        C      dtrrde:	ld	hl,(ft.adr)
  E105    DD 21 E1F8     C      	ld	ix,crcber
  E109    CD E168        C      crcbel:	call	crcbd		;CRC bilden
  E10C    CD E15E        C      	call	crcvgl		; und vergleichen
  E10F    20 07          C      	jr	nz,crcerx	; -> Fehler
  E111    CD E153        C      	call	crcnb		;noch ein Sektor?
  E114    20 F3          C      	jr	nz,crcbel	;ja
  E116    18 D0          C      	jr	noerr
                         C      
                         C      ; Fehlerbehandlung
                         C      ;=================
                         C      ; blieb weiterer Versuch, Sektor CRC-richtig reinzubekommen?
  E118    21 E213        C      crcerx: ld	hl,crerc
  E11B    35             C      	dec	(hl)
  E11C    C2 E048        C      	jp	nz,rdwr		; -> ja, alles noch mal
  E11F    3E 43          C      	ld	a,'C'		; Fehler: CRC-Zeichen falsch
  E121    18 C6          C      	jr	fehret
                         C      
                         C      ; Sektor nicht gefunden, evtl. falsche Spur
  E123                   C      serrx:
                         C      ; blieb weiterer Versuch, die richtige Spur zu finden?
  E123    21 E214        C      	ld	hl,sperc
  E126    35             C      	dec	(hl)
  E127    28 15          C      	jr	z,sperr2	; Wiederhlg. abgelaufen
  E129    3E 02          C      	ld	a,2
  E12B    BE             C      	cp	(hl)		;> 2 Wiederhlg?
  E12C    DA E020        C      	jp	c,trk0		;ja, Spur neu anfahren
  E12F    06 8F          C      	ld	b,08fh		;stepout
  E131    28 05          C      	jr	z,sperr4	;=2 Wiederhlg., stepout
  E133    06 AF          C      	ld	b,0afh		;stepin
  E135    CD DFFE        C      	call	step		;2 mal (zuvor war stepout)
  E138    CD DFFE        C      sperr4:	call	step
  E13B    C3 E03F        C      	jp	phrw		;Wiederholung
                         C      
  E13E    3E 53          C      sperr2:	ld	a,'S'		; Fehler: Sektor ist nicht zu finden
  E140    18 A7          C      	jr	fehret
                         C      
                         C      
  E142                   C      fl.to1: ; keine Sektor-Marke gefunden
  E142    3E 55          C      	ld	a,'U'		; time-out (undefind)
  E144    18 A3          C      	jr	fehret
                         C      
                         C      ; Modifizierung entsprechend Steuertabelle
                         C      ;=========================================
                         C      ; i HL	Tabelle der Modifizierungsadressen (wohin)
                         C      ; i DE	Tabelle der Modifizierungsbytes    (was)
  E146    46             C      flmodf:	ld	b,(hl)		;Anzahl der Adressen
  E147    23             C      dslnmz:	inc	hl
  E148    C5             C      	push	bc
  E149    4E             C      	ld	c,(hl)
  E14A    23             C      	inc	hl
  E14B    46             C      	ld	b,(hl)		;bc:=wohin
  E14C    1A             C      	ld	a,(de)		;a:=was
  E14D    13             C      	inc	de
  E14E    02             C      	ld	(bc),a
  E14F    C1             C      	pop	bc
  E150    10 F5          C      	djnz	dslnmz
  E152    C9             C      	ret
                         C      
                         C      ; CRC-Berechnung
                         C      ;===============
BIOS CP/A, Buerocomputer (A5120/30 u. ae.)	MACRO-80 V3.50	25-Oct-85	Page	1-88


                         C      
                         C      ; von weiterem Sektor CRC-Zeichen berechnen?
                         C      ; IX wird weitergestellt
  E153    DD 23          C      crcnb: 	inc	ix		; CRC-Pointer erhoehen
  E155    DD 23          C      	inc	ix
  E157    3E FF          C      	ld	a,0ffh
  E158                   C      secanz	equ	$-1
  E159    3D             C      	dec	a
  E15A    32 E158        C      	ld	(secanz),a
  E15D    C9             C      	ret
                         C      
                         C      ; CRC-Vergleich DE mit (IX)
  E15E    DD 7E 00       C      crcvgl: ld	a,(ix+0)
  E161    BA             C      	cp	d
  E162    C0             C      	ret	nz
  E163    DD 7E 01       C      	ld	a,(ix+1)
  E166    BB             C      	cp	e
  E167    C9             C      	ret
                         C      
                         C      ; von einem phys. Sektor ab HL die CRC-Zeichen berechnen
                         C      ; HL wird weitergestellt
  E168    11 CDB4        C      crcbd:	ld	de,0cdb4h	;CRC Anfangswert
  E169                   C      crcbeg	equ	$-2
  E16B    DD E5          C      	push	ix
  E16D    E3             C      	ex	(sp),hl		;hl:= ^Datenbeginn-Byte
  E16E    06 01          C      	ld	b,1
  E170    CD E182        C      	call	bercrc		;CRC ueber Datenbeginn-Byte
  E173    E3             C      	ex	(sp),hl
  E174    DD E1          C      	pop	ix
  E176    06 01          C      	ld	b,1
  E177                   C      fl.tsb	equ	$-1		; Zahl der 128er Bloecke
  E178    C5             C      sp74: 	push	bc
  E179    06 80          C      	ld	b,128
  E17B    CD E182        C      	call	bercrc
  E17E    C1             C      	pop	bc
  E17F    10 F7          C      	djnz	sp74
  E181    C9             C      	ret
                         C      
                         C      ; von HL an B Zeichen auf DE als CRC-Polynom draufrechnen
  E182    7E             C      bercrc: ld	a,(hl)
  E183    AA             C      	xor	d
  E184    57             C      	ld	d,a
  E185    0F             C      	rrca
  E186    0F             C      	rrca
  E187    0F             C      	rrca
  E188    0F             C      	rrca
  E189    E6 0F          C      	and	0fh
  E18B    AA             C      	xor	d
  E18C    57             C      	ld	d,a
  E18D    0F             C      	rrca
  E18E    0F             C      	rrca
  E18F    0F             C      	rrca
  E190    4F             C      	ld	c,a
  E191    E6 1F          C      	and	1fh
  E193    AB             C      	xor	e
  E194    5F             C      	ld	e,a
  E195    79             C      	ld	a,c
  E196    0F             C      	rrca
  E197    E6 F0          C      	and	0f0h
  E199    AB             C      	xor	e
  E19A    5F             C      	ld	e,a
  E19B    79             C      	ld	a,c
BIOS CP/A, Buerocomputer (A5120/30 u. ae.)	MACRO-80 V3.50	25-Oct-85	Page	1-89


  E19C    E6 E0          C      	and	0e0h
  E19E    AA             C      	xor	d
  E19F    53             C      	ld	d,e
  E1A0    5F             C      	ld	e,a
  E1A1    23             C      	inc	hl
  E1A2    10 DE          C      	djnz	bercrc
  E1A4    C9             C      	ret
                         C      
                         C      ; Aktivieren Indexpunktueberwachung
                         C      ; i A	Zaehler (wird bis 0 runtergezaehlt)
                         C      ; nur Reg. A zerstoert
                         C      
  E1A5    32 E1B6        C      fl.sto:	ld	(fl.zto),a	;Setzen Zaehler fuer Indexpunkte
  E1A8    3E 83          C      	ld	a,83h		;zulassen Indexinterrupt
  E1AA    D3 11          C      	out	(flcoac),a
  E1AC    C9             C      	ret
                         C      
                         C      ; Interruptbehandlungsroutine: time-out-Zeit abgelaufen
                         C      ; ausgeloest durch Index-Interrupt
  E1AD    ED 73 E4F8     C      itimeo: ld	(intsp),sp
  E1B1    31 F00C        C      	ld	sp,intstk
  E1B4    F5             C      	push	af
  E1B5    3E 00          C      	ld	a,0		; Zaehler fuer time-out Takte
  E1B6                   C      fl.zto	equ	$-1
  E1B7    3D             C      	dec	a		; time-out -1
  E1B8    32 E1B6        C      	ld	(fl.zto),a
  E1BB    20 10          C      	jr	nz,pret1	;-> nicht abgelaufen
  E1BD    18 0B          C      pretx:	jr	pret3		;modif. auf "jr pret4" waehrend Transfer
  E1BF                   C      pret4:
                         C       IF cpu eq k2526
  E1BF    3E A9          C      	ld	a,10101001b	;Time out waehrend Transfer
  E1C1    D3 10          C      	out	(flcoad),a	;CPU 2 stoppen
  E1C3    3E 00          C      	ld	a,dtrtor-dtrwjr
  E1C5    32 E29E        C      	ld	(dtrret),a	;Reaktionsroutine "keine Marke gefunden"
                         C       ENDIF
  E1C8    18 03          C      	jr	pret1
  E1CA    CD E1D0        C      pret3:	call	headup
  E1CD    C3 E4F6        C      pret1: 	jp	intraf		; allg. Ausgang Interruptroutinen
                         C      
                         C      ; Motor-Abschaltung von aussen her
                         C      ; nur Reg. AF zerstoert
  E1D0    3E 03          C      headup:	ld	a,3		; Indexinterrupt sperren
  E1D2    D3 11          C      	out	(flcoac),a
  E1D4    3E FF          C      	ld	a,0ffh		; Motor aus
  E1D6    D3 18          C      	out	(flsel),a
                         C       IF fdc eq f1715
                         C       ENDIF
                         C      ; Motor aus und alte Spurnummer merken
  E1D8    E5             C      flres: 	push	hl
  E1D9    C5             C      	push	bc
  E1DA    21 E217        C      	ld	hl,alwnr
  E1DD    CB 9E          C      	res	3,(hl)		; Motor aus vermerken
  E1DF    4E             C      	ld	c,(hl)
  E1E0    06 00          C      	ld	b,0
  E1E2    21 E219        C      	ld	hl,spnrl	; alte Spurnr. in Tabelle merken
  E1E5    09             C      	add	hl,bc
  E1E6    3A E218        C       	ld	a,(aspnr)
  E1E9    77             C      	ld	(hl),a
  E1EA    C1             C      	pop	bc
  E1EB    E1             C      	pop	hl
  E1EC    C9             C      	ret
                         C      
BIOS CP/A, Buerocomputer (A5120/30 u. ae.)	MACRO-80 V3.50	25-Oct-85	Page	1-90


                         C      
                         C      ;*****************************************************
                         C      ;	Arbeitsbereiche phys. Floppy-Treiber
                         C      ;*****************************************************
                         C      
                         C      ; Parameterfeld
                         C      ;==============
  E1ED    00             C      ft.kom: db	0	; Kommando
  E1EE    0000           C      ft.adr: dw	0	; Transferadresse
  E1F0    00             C      ft.lwn: db	0	; Laufwerksnummer 0..3
  E1F1    00             C      ft.trk: db	0	; Spurnummer   0..
  E1F2    00             C      ft.sid: db	0	; side-Nr.     0..1
  E1F3    00             C      ft.sec: db	0	; Sektornummer
  E1F4    00             C      ft.len: db	0	; Sektorlaenge 0..3
  E1F5    00             C      ft.anz: db	0	; Anz. phys. Sektoren
  E1F6    00             C      ft.stp: db	0	; Anzahl der Stepimpulse pro Spur
  E1F7    00             C      ft.sti: db	0	; Schrittzeit von Spur zu Spur
                         C      
  E1F8                   C      crcber: ds	3*9,0ffh; Ber. zum Ablegen der gelesenen/zu schreibenden CRC-Z.
                         C      			; reicht fuer 9 physische Sektoren pro Transfer
                         C      ; Fehler-Wiederholungszaehler
  E213    00             C      crerc: 	db	0	; CRC-Fehler
  E214    00             C      sperc: 	db	0	; Spur nicht gefunden
  E215    00             C      seerc: 	db	0	; Sektor nicht gefunden
  E216    00             C      lwexis: db	0	; Anzeigebyte fuer vorhandene Laufwerke
                         C      			; bit 0 = 1 LW 0 vorhanden
                         C      			; bit 2 = 1 LW 1 vorhanden
                         C      			; bit 4 = 1 LW 2 vorhanden
                         C      			; bit 6 = 1 LW 3 vorhanden
                         C      
  E217    00             C      alwnr: 	db	0	; alte Laufwerksnummer vom vergangenen Zugriff
                         C      			; bit 0-2 LW-Nr., bit 3 = 1 Motor laeuft noch
                         C      
  E218    00             C      aspnr:	db	0	; aktuelle Spur des durch alwnr bezeichneten LW
  E219    00 00 00 00    C      spnrl: 	db	0,0,0,0	; Tabelle der alten Spurnummern
                         C      
                         C       IF dsk8fm+dsk8mf+dsk5fm
                         C       ENDIF ;nicht nur 5" MFM
                         C      
                         C      ; Modifizierungstabelle entspr. Sektorlaenge
                         C      
  E21D    09             C      dslnmt:	db	dslnl		;Tabellenlaenge
  E21E    E177           C      	dw	fl.tsb		;Anzahl der 128er Bloecke
  E220    E37A           C      	dw	diosl1		;Laenge erstes INIR
                         C       IF cpu eq k2526
  E222    E386           C      	dw	dini1+1		;INI oder INIR
  E224    E389           C      	dw	dini2+1
  E226    E38C           C      	dw	dini3+1
                         C       ENDIF
                         C       if @write
  E228    E3DA           C      	dw	diosl2		;Laenge erstes OTIR
                         C        IF cpu eq k2526
  E22A    E3DD           C      	dw	doti1+1		;OUTI oder OTIR
  E22C    E3DF           C      	dw	doti2+1
  E22E    E3E1           C      	dw	doti3+1
                         C        ENDIF
                         C       endif
  0009                   C      dslnl	equ	($-dslnmt-1)/2	;Tabellenlaenge
                         C      
                         C      ; 128
  E230    01             C      dsln0:	db	1
                         C       IF cpu eq k2526
BIOS CP/A, Buerocomputer (A5120/30 u. ae.)	MACRO-80 V3.50	25-Oct-85	Page	1-91


  E231    80 A2 A2 A2    C      	db	128,0a2h,0a2h,0a2h
                         C       ENDIF
                         C       if @write
                         C        IF cpu eq k2526
  E235    80 A3 A3 A3    C      	db	128,0a3h,0a3h,0a3h
                         C        ENDIF
                         C       endif
                         C      
                         C      ; 256
  E239    02             C      dsln1:	db	2
                         C       IF cpu eq k2526
  E23A    00 A2 A2 A2    C      	db	0,0a2h,0a2h,0a2h
                         C       ENDIF
                         C       if @write
                         C        IF cpu eq k2526
  E23E    00 A3 A3 A3    C      	db	0,0a3h,0a3h,0a3h
                         C        ENDIF
                         C       endif
                         C      
                         C      ; 512
  E242    04             C      dsln2:	db	4
                         C       IF cpu eq k2526
  E243    00 A2 A2 B2    C      	db	0,0a2h,0a2h,0b2h
                         C       ENDIF
                         C       if @write
                         C        IF cpu eq k2526
  E247    00 A3 A3 B3    C      	db	0,0a3h,0a3h,0b3h
                         C        ENDIF
                         C       endif
                         C      
                         C      ; 1024
  E24B    08             C      dsln3:	db	8
                         C       IF cpu eq k2526
  E24C    00 B2 B2 B2    C      	db	0,0b2h,0b2h,0b2h
                         C       ENDIF
                         C       if @write
                         C        IF cpu eq k2526
  E250    00 B3 B3 B3    C      	db	0,0b3h,0b3h,0b3h
                         C        ENDIF
                         C       endif
                         C      
                         C       IF dskds
                         C      ; Modifizierungsadressen fuer Seitenauswahl
  E254    09             C      dsidmt:	db	dsidtl		; MFM		 FM
  E255    E2DF           C      	dw	diom01		;85/81		87/83
                         C       IF cpu eq k2526
  E257    E28B           C      	dw	diom02		;a5/a1		a5/a1
  E259    E2DB           C       	dw	diom03		;b5/b1		b5/b1
  E25B    E2CB           C      	dw	diom13		;bd/b9		bd/b9
                         C       ENDIF
                         C       if @write
                         C        IF dsk8fm+dsk5fm
                         C        ENDIF
  E25D    E3B3           C      	dw	diom07		;b4/b0		 -
  E25F    E3C5           C      	dw	diom08		;b6/b2		 -
  E261    E3CF           C      	dw	diom09		;b4/b0		 -
                         C       endif
  E263    E372           C      	dw	diom10		;b5/b1		b5/b1
                         C      ;;diom11 muss letztes Byte in der Tabelle sein
  E265    E3F1           C      	dw	diom11		;b5/b1		b5/b1
  0009                   C      dsidtl	equ	($-dsidmt-1)/2
                         C       ENDIF
BIOS CP/A, Buerocomputer (A5120/30 u. ae.)	MACRO-80 V3.50	25-Oct-85	Page	1-92


                         C      	include BIOSDSKP
                         C      ;****************************************************************
                         C      ; Treiber fuer Ansteuerung K5120/K5122 ueber K2526 (mit Hilfsprozessor)
                         C      ; 04.06.87
                         C      ; - Fehlerkorrektur 8" MFM (Taktzeiten)
                         C      ; 25.09.89
                         C      ; - wegen MFS 1.2 nach Transfer b1 (= fault reset) als Standardwert
                         C      ;****************************************************************
                         C      
  E267                   C      diorun:
  E267    2A E1EE        C      	ld	hl,(ft.adr)
  E26A    22 E2B3        C      	ld	(diodma),hl
                         C      
                         C      ; physischen Transfer ueber CPU 2 starten
                         C      
  E26D    21 E2AE        C      	ld	hl,dio
  E26E                   C      diortn	equ	$-2
  E270    ED 4B 0001     C      	ld	bc,(1)		;retten HS 1
  E274    22 0001        C      	ld	(1),hl		;CPU 2 -Routine
  E277    3E FE          C      	ld	a,0feh
  E279    32 E29E        C      	ld	(dtrret),a	;stellen Warte-Reaktion
  E27C    AF             C      	XOR	A
  E27D    D3 14          C      	OUT	(fldaad),A
  E27F    D3 04          C      	OUT	(04H),A		;reset CPU 2
  E281    3D             C      	dec	a		;Mode 3 (Bit E/A)
  E282    D3 17          C      	OUT	(fldabc),A
  E284    D3 17          C      	OUT	(fldabc),A	;alles Input
  E286    3E B9          C      	ld	a,10111001b	;AMF aus, Fault reset
  E288    D3 10          C      	out	(flcoad),a
  E28A    3E A5          C      	LD	A,10100101b	;Seite einstellen, Mark reset, AMF aktiv
  E28B                   C      diom02	equ	$-1		;a5/a1
  E28C    D3 10          C      	OUT	(flcoad),A
  E28E    3E 7F          C      	LD	A,7FH		;Mode 1
  E290    D3 17          C      	OUT	(fldabc),A
  E292    DB 16          C      	IN	A,(fldabd)	;CPU2 starten (ueber BUSRQ)
                         C      ; durch die Anfangsinitialisierung der CPU2 vergehen die notwendigen
                         C      ; 100 Mikrosek. fuer Seitenumschaltung
  E294    ED 43 0001     C      	ld	(1),bc		;HS 1 wiederherst.
  E298    3A E2DF        C      	LD	A,(diom01)	;Lesen Marke
  E29B    D3 10          C      	OUT	(flcoad),A	;weiter bei CPU2 nach Anfangsinit.
                         C      ; Achtung!! Zur Synchronisation CPU1 und CPU2 keine 2-Byte-Werte
                         C      ; (Adressen) verwenden, da dazwischen BUSRQ auftreten kann und dann
                         C      ; nur ein Byte gesetzt wurde!!
  E29D    18 FE          C      	jr	$		;auf CPU 2 Ende warten
  E29E                   C      dtrret	equ	$-1
  E29F                   C      dtrwjr:
  E29F    C3 E142        C      dtrtor:	jp	fl.to1		;time out
  E2A2    C3 E0E8        C      dtrner:	jp	noerr		;fehlerfrei (Sekt.id)
  E2A5    C3 E123        C      dtrnsr:	jp	serrx		;Sektor nicht gefunden
  E2A8    C3 E102        C      dtrrdr:	jp	dtrrde		;Read Ende
  E2AB    C3 E0F6        C      dtrwrr:	jp	dtrwre		;Write Ende
                         C      ;--------------------------
                         C      
                         C      
                         C      ; Code CPU 2 fuer phys. Diskettentransfer
                         C      ;========================================
                         C      ; Zeitbedingungen fuer 8" MFM:
                         C      ; 6 Umdrehungen pro Sec bei 2*5208 Bytes pro Spur bedeutet
                         C      ; 1/(6*2*5208), d.h. 16 Mikrosec pro Byte!!
                         C      ; Bei einer Taktfrequenz von (9600*256)=2457600 Hz sind das
                         C      ; (9600*256)/(6*2*5208) Takte, d.h. max. 39 Takte pro Byte!!
                         C      ; Wegen BUSRQ/BUSAK muss davon der laengste Maschinenzyklus
BIOS CP/A, Buerocomputer (A5120/30 u. ae.)	MACRO-80 V3.50	25-Oct-85	Page	1-93


                         C      ; der CPU 1 abgezogen werden, d.h. 6 Takte (Interruptannahme),
                         C      ; weiterhin je ein Takt fuer BUSRQ/BUSAK-Umschaltung,
                         C      ; es verbleiben 31 Takte zwischen den E/A-Maschinenzyklen!!
                         C      
                         C      ; normaler Entry in phys. Diskettentransfer
                         C      ;==========================================
  E2AE                   C      dio:	
  E2AE    AF             C      	xor	a		;wiederherstellen 'jr diokl'
  E2AF    32 E2E7        C      	ld	(diomd1+1),a
  E2B2    21 0000        C      	ld	hl,0
  E2B3                   C      diodma	equ	$-2		;Transferadresse
  E2B5    3E 00          C      	ld	a,0
  E2B6                   C      secan1	equ	$-1		;a':=Zahl zu transfer. phys. Sekt.
  E2B7    08             C      	ex	af,af'
  E2B8    11 E1F8        C      	ld	de,crcber	;auf Beginn Datenbyte-/CRC-Vektor
  E2BB    D9             C      dio2:	exx
  E2BC    01 00FF        C      	ld	bc,000ffh	;bc':= Spur, Seite
  E2BD                   C      sidtr	equ	$-2
  E2BE                   C      sidsid	equ	$-1
  E2BF    21 FFFF        C      	ld	hl,0ffffh	;hl':= Sektor, Sektlngflag
  E2C0                   C      sidsec	equ	$-2
  E2C1                   C      sidlen	equ	$-1
  E2C2    11 FEA1        C      	ld	de,0fea1h	;de':= Sektorid-Byte, Kluftbyte
  E2C5    3E 3C          C      	ld	a,60		;Wiederholungszaehler falscher Sektid.
  E2C7    32 E215        C      	ld	(seerc),a	;fuer ersten Sektor stellen
  E2CA    3E BD          C      diostp:	ld	a,10111101b	;bd/b9, AMF aus, Seite bleibt (>=100 Mikros.)
  E2CB                   C      diom13	equ	$-1
  E2CC    D3 10          C      	out	(flcoad),a	;Ende CPU2
  E2CE    18 12          C      	jr	diogo		;Fortsetzung nach Anfangsinit
                         C      
  E2D0                   C      dionss:
  E2D0    3E 3C          C      	ld	a,60		;Wiederholungszaehler falscher Sektid.
  E2D2    32 E215        C      	ld	(seerc),a	;fuer naechsten Sektor setzen
  E2D5                   C      diomr:
  E2D5    3E 05          C      	ld	a,5		;verhindern unendl. Schleife
  E2D7    32 E1B6        C      	ld	(fl.zto),a	;bei fehlender Sektor-Marke
  E2DA    3E B5          C      diomrk:	ld	a,10110101b	;b5/b1 MFM; b5/b1 FM
  E2DB                   C      diom03	equ	$-1		;Mark reset, lesen 1
  E2DC    D3 10          C      	out	(flcoad),a
  E2DE    3E 85          C      	ld	a,10000101b	;85/81 MFM; 87/83 FM
  E2DF                   C      diom01	equ	$-1		;Lesen Marke entspr. Aufzverf.
  E2E0    D3 10          C      	out	(flcoad),a
  E2E2    DB 16          C      diogo:	in	a,(fldabd)
  E2E4    D3 14          C      	out	(fldaad),a
  E2E6    18 00          C      diomd1:	jr	diomd1+2	;wird modifiziert mit 'jr diotrr',
                         C      				;wenn Sektorid zu lesen
  E2E8    DB 16          C      diokl:	in	a,(fldabd)
  E2EA    BB             C      	cp	e		;'A1', d.h. noch in Kluft?
  E2EB    28 FB          C      	jr	z,diokl		;ja
  E2ED    BA             C      	cp	d		;'FE', d.h. Sektorbeginn?
  E2EE    DB 16          C      	in	a,(fldabd)
  E2F0    20 E8          C      	jr	nz,diomrk	;nein, weitersuchen
  E2F2    B9             C      	cp	c		;Spur ok?
  E2F3    DB 16          C      	in	a,(fldabd)
  E2F5    20 5D          C      	jr	nz,serr		;nein, falscher Sektid.
  E2F7    B8             C      	cp	b		;Seite ok?
  E2F8    DB 16          C      	in	a,(fldabd)
  E2FA    20 58          C      	jr	nz,serr		;nein, falscher Sektid.
  E2FC    BD             C      	cp	l		;Sektor ok?
  E2FD    DB 16          C      	in	a,(fldabd)
  E2FF    20 53          C      	jr	nz,serr		;nein, falscher Sektid.
  E301    BC             C      	cp	h		;Sekt-Laengencode?
BIOS CP/A, Buerocomputer (A5120/30 u. ae.)	MACRO-80 V3.50	25-Oct-85	Page	1-94


  E302    DB 16          C      	in	a,(fldabd)	;**ignorieren CRC Sektid**
  E304    20 4E          C      	jr	nz,serr		;nein, falscher Sektid.
  E306    D9             C      	exx
  E307    DB 16          C      	in	a,(fldabd)	;**ignorieren CRC Sektid**
  E309    06 11          C      	ld	b,17		;Zahl zu uebergeh. Bytes
  E30A                   C      diomd2	equ	$-1		;bei DD auf 17, bei SD auf 6
  E30B    DB 16          C      diosyn:	in	a,(fldabd)	;Bytes ignorieren
  E30D    10 FC          C      	djnz	diosyn
  E30F    DB 16          C      	in	a,(fldabd)
  E311    C3 E369        C      	jp	diord
  E312                   C      dioop	equ	$-2		;wird modifiziert entspr. Oper.
                         C      ;				 mit diord, diwmfm, diowfm
                         C      
                         C      ; Entry fuer phys. Treiber zum Lesen Sekt.-Id. auf akt. Spur
                         C      ;===========================================================
  E314    3E 39          C      diotsr:	ld	a,diotrr-(diomd1+2)	;jr diotrr
  E316    32 E2E7        C      	ld	(diomd1+1),a	;modifizieren
  E319    01 0316        C      	ld	bc,3*256+fldabd	;Lesen 3 Bytes Sektorid
  E31C    21 E1F2        C      	ld	hl,ft.trk+1	;dorthin Sektorid hinterlegen
  E31F    18 9A          C      	jr	dio2		;Einsprung in phys. Treiber
  E321                   C      diotrr:
  E321    DB 16          C      diotr0:	in	a,(fldabd)
  E323    BB             C      	cp	e		;'A1', d.h. noch in Kluft?
  E324    28 FB          C      	jr	z,diotr0	;ja
  E326    BA             C      	cp	d		;'FE', d.h. Sektorbeginn?
  E327    DB 16          C      	in	a,(fldabd)	;wenn ja, so ist das die Spur
  E329    20 AF          C      	jr	nz,diomrk	;nein, weitersuchen
  E32B    D9             C      	exx
  E32C    ED B2          C      	inir			;Sektorid lesen
  E32E    D9             C      	exx
  E32F    6F             C      	ld	l,a		;Spur retten
  E330    3A E2DB        C      	ld	a,(diom03)
  E333    D3 10          C      	out	(flcoad),a	;Lesen 1
  E335    7D             C      	ld	a,l
  E336    B9             C      	cp	c		;richtige Spur?
  E337    28 09          C      	jr	z,diotr1	;ja
  E339    3A E1F2        C      	ld	a,(ft.sid)
  E33C    90             C      	sub	b		;stimmt side?
  E33D    20 0B          C      	jr	nz,diotre	;nein, dies ist kein Sektid.
  E33F    B9             C      	cp	c		;war Spur 0 gefordert?
  E340    28 23          C      	jr	z,serr2		;ja, nachjustieren (ft.trk steht noch)
  E342    7D             C      diotr1:	ld	a,l
  E343    32 E1F1        C      	ld	(ft.trk),a	;(tatsaechliche) Spur aus Sekt.Id.
  E346    3E 03          C      	ld	a,dtrner-dtrwjr	;Reaktionsroutine
  E348    18 5D          C      	jr	dioend		;Abschlussbehandlung
  E34A    D9             C      diotre:	exx
  E34B    01 0316        C      	ld	bc,3*256+fldabd	;Lesen 3 Bytes Sektorid
  E34E    21 E1F2        C      	ld	hl,ft.trk+1	;dorthin Sektorid hinterlegen
  E351    D9             C      	exx
  E352    18 07          C      	jr	serr1
                         C      ;---------------------------
                         C      
                         C      ; Fehlerausgaenge
                         C      ;----------------
                         C      ; falscher Sektorid.
  E354    DB 16          C      serr:	in	a,(fldabd)
  E356    3A E2DB        C      	ld	a,(diom03)	;Lesen 1
  E359    D3 10          C      	out	(flcoad),a
  E35B    3A E215        C      serr1:	ld	a,(seerc)
  E35E    3D             C      	dec	a		;blieb weiterer Versuch?
  E35F    32 E215        C      	ld	(seerc),a
  E362    C2 E2D5        C      	jp	nz,diomr	;ja
BIOS CP/A, Buerocomputer (A5120/30 u. ae.)	MACRO-80 V3.50	25-Oct-85	Page	1-95


  E365    3E 06          C      serr2:	ld	a,dtrnsr-dtrwjr	;Sektor nicht gefunden
  E367    18 3E          C      	jr	dioend
                         C      
                         C      ; Lesen
                         C      ;-------
  E369    DB 16          C      diord:	in	a,(fldabd)
  E36B    06 06          C      	ld	b,6
  E36D    DB 16          C      diords:	in	a,(fldabd)	;uebergehen Synchron-Bytes
  E36F    10 FC          C      	djnz	diords
  E371    3E B5          C      	ld	a,10110101b	;b5/b1
  E372                   C      diom10	equ	$-1
  E373    D3 10          C      	out	(flcoad),a	;Lesen 1
  E375    3A E2DF        C      	ld	a,(diom01)	;85/81 MFM; 87/83 FM
  E378    01 8016        C      	ld	bc,128*256+fldabd ;b:=inir-Laenge
  E37A                   C      diosl1	equ	$-1		  ;   128 bei Sektl 128, sonst =0
  E37B    D3 10          C      	out	(flcoad),a	;Lesen Marke
  E37D    DB 16          C      	in	a,(fldabd)	;ignorieren evtl. anstehenden Muell
  E37F    DB 16          C      diorkl:	in	a,(fldabd)
  E381    FE A1          C      	cp	0a1h		;noch in Kluft?
  E383    28 FA          C      	jr	z,diorkl	;ja
  E385    ED A2          C      dini1:	ini			;Daten lesen
  E387    12             C      	ld	(de),a		;Datenbeginn-Byte hinterlegen
  E388    ED A2          C      dini2:	ini
  E38A    13             C      	inc	de
  E38B    ED A2          C      dini3:	ini
  E38D    ED B2          C      	inir
  E38F    EB             C      	ex	de,hl
  E390    ED A2          C      	ini			;CRC Daten
  E392    ED A2          C      	ini
  E394    3A E3F1        C      	ld	a,(diom11)	;b1 fuer MFS 1.2 Fault reset, sonst b5/b1
  E397    D3 10          C      	out	(flcoad),a	;Lesen 1
  E399    EB             C      	ex	de,hl
  E39A    3E 09          C      	ld	a,dtrrdr-dtrwjr	;Reaktionsroutine Read Ende
                         C      
                         C      ; naechsten Sektor behandeln
                         C      ;---------------------------
  E39C    08             C      dions:	ex	af,af'		;Zahl zu uebertr. Sektoren
  E39D    3D             C      	dec	a
  E39E    28 06          C      	jr	z,dionse	;=0, fertig
  E3A0    08             C      	ex	af,af'
  E3A1    D9             C      	exx
  E3A2    2C             C      	inc	l		;Sektor+1
  E3A3    C3 E2D0        C      	jp	dionss
  E3A6    08             C      dionse:	ex	af,af'
                         C      
                         C      ; Abschlussbehandlung
                         C      ;--------------------
  E3A7                   C      dioend:
  E3A7    32 E29E        C      	ld	(dtrret),a	;Reaktionsroutine hinterlegen
  E3AA    C3 E2CA        C      	jp	diostp		;Stop CPU2
                         C      
                         C       IF @write
                         C      
                         C       IF dsk8fm+dsk8mf+dsk5fm
                         C       ENDIF
                         C      
                         C      
                         C      ; Schreiben  MFM
                         C      ;---------------
  E3AD    DB 16          C      diwmfm:	in	a,(fldabd)
  E3AF    DB 16          C      	in	a,(fldabd)
  E3B1    01 B410        C      	ld	bc,10110100b*256+flcoad
BIOS CP/A, Buerocomputer (A5120/30 u. ae.)	MACRO-80 V3.50	25-Oct-85	Page	1-96


  E3B3                   C      diom07	equ	$-1		;b4/b0
  E3B4    DB 16          C      	in	a,(fldabd)
  E3B6    ED 41          C      	out	(c),b		;Schreiben MFM normal
  E3B8    DB 16          C      	in	a,(fldabd)
  E3BA    AF             C      	xor	a
  E3BB    D3 14          C      	out	(fldaad),a	; 1*'00'
  E3BD    01 0A14        C      	ld	bc,10*256+fldaad
  E3C0    D3 14          C      diwmfs:	out	(fldaad),a	;10*'00'
  E3C2    10 FC          C      	djnz	diwmfs
  E3C4    3E B6          C      	ld	a,10110110b
  E3C5                   C      diom08	equ	$-1		;b6/b2
  E3C6    ED 41          C      	out	(c),b		; 1*'00'
  E3C8    D3 10          C      	out	(flcoad),a	;Schreiben MFM Marke
  E3CA    06 A1          C      	ld	b,0a1h
  E3CC    ED 41          C      	out	(c),b		;3*'A1'
  E3CE    3E B4          C      	ld	a,10110100b
  E3CF                   C      diom09	equ	$-1		;b4/b0
  E3D0    ED 41          C      	out	(c),b
  E3D2    EB             C      	ex	de,hl
  E3D3    ED 41          C      	out	(c),b
  E3D5    D3 10          C      	out	(flcoad),a	;Schreiben MFM normal
  E3D7    ED A3          C      	outi			;'FB'
                         C      
  E3D9    06 80          C      diowrt:	ld	b,128		;Laenge erster OTIR-Block
  E3DA                   C      diosl2	equ	$-1		;128 bei Sektl 128, sonst 0
  E3DB    EB             C      	ex	de,hl
  E3DC    ED A3          C      doti1:	outi			;Daten ausgeben
  E3DE    ED A3          C      doti2:	outi
  E3E0    ED A3          C      doti3:	outi
  E3E2    ED B3          C      	otir
  E3E4    EB             C      	ex	de,hl
  E3E5    ED A3          C      	outi			;CRC Daten
  E3E7    AF             C      	xor	a
  E3E8    ED A3          C      	outi
  E3EA    06 14          C      diowm1:	ld	b,20		;Anzahl der Nach-Null-Bytes
                         C      				;5" MFM/FM: 20; 8" MFM/FM: 2
  E3EC    D3 14          C      diow00:	out	(fldaad),a	;'00'
  E3EE    10 FC          C      	djnz	diow00
  E3F0    3E B1          C      	ld	a,10110001b	;b1 fuer MFS 1.2 Fault reset, sonst b5/b1
  E3F1                   C      diom11	equ	$-1
  E3F2    D3 10          C      	out	(flcoad),a	;Schreiben aus, Lesen 1
  E3F4    EB             C      	ex	de,hl
  E3F5    3E 0C          C      	ld	a,dtrwrr-dtrwjr	;Schreiben OK Reaktion
  E3F7    C3 E39C        C      	jp	dions		;naechster Sektor
                         C      
                         C      	ENDIF	;@write
                                 ENDIF
                                 IF hdsk
                                 ENDIF
                                 IF oss
                                 ENDIF
                                 IF em256
                         C      	include BIOSREM		;RAM-Floppy mit EM256
                         C      ;********************************************************
                         C      ;	RAM-Floppy mit EM256 Erweiterungsmodul (16 Bit mit U8000)
                         C      ; Version 15.05.87
                         C      ;********************************************************
                         C      
                         C       if1
                         C       endif ;if1
                         C      
                         C      ;**************************************************************
BIOS CP/A, Buerocomputer (A5120/30 u. ae.)	MACRO-80 V3.50	25-Oct-85	Page	1-97


                         C      ;	Schreiben RAM-Floppy
                         C      ;**************************************************************
  E3FA                   C      wrramf:
  E3FA    2A DF02        C      	ld 	hl,(ddma)
  E3FD    01 0080        C      	ld 	bc,128		;128 Byte von DMA nach Puffer
  E400    11 F202        C      	ld 	de,dmabuf
  E403    ED B0          C      	ldir
  E405    3A DEFD        C      	ld	a,(dtrack)
  E408    CD E440        C      	call 	ramon		;Testram / EM256 zuschalten
  E40B    C5             C      	push 	bc
  E40C    EB             C      	ex 	de,hl
  E40D    01 0080        C      	ld 	bc,128
  E410    21 F202        C      	ld 	hl,dmabuf	;128 byte von Puffer nach RAM-Floppy
  E413    ED B0          C      	ldir
  E415    C1             C      	pop 	bc
  E416    CD E473        C      	call	ramoff
                         C      	IF	em256
  E419    3A E498        C      	ld	a,(parerr)
                         C      	ENDIF
  E41C    C9             C      	ret
                         C      
                         C      ;**************************************************************
                         C      ;	Lesen RAM-Floppy
                         C      ;**************************************************************
                         C      
  E41D                   C      rdramf:
  E41D    3A DEFD        C      	ld	a,(dtrack)
  E420    CD E440        C      	call 	ramon		;Testram aktivieren
  E423    C5             C      	push 	bc
  E424    01 0080        C      	ld 	bc,128		;128 Byte 
  E427    11 F202        C      	ld 	de,dmabuf	;nach Puffer
  E42A    ED B0          C      	ldir
  E42C    C1             C      	pop 	bc
  E42D    CD E473        C      	call 	ramoff		;Testram abschalten
  E430    21 F202        C      	ld 	hl,dmabuf	;von Puffer nach DMA uebertragen
  E433    01 0080        C      	ld 	bc,128
  E436    ED 5B DF02     C      	ld 	de,(ddma)
  E43A    ED B0          C      	ldir
                         C      	IF	em256
  E43C    3A E498        C      	ld	a,(parerr)
                         C      	ENDIF
  E43F    C9             C      	ret
                         C      
                         C      ;********************************************************************
                         C      ;	Unterprogramme fuer RAM-Floppy
                         C      ;********************************************************************
                         C      
                         C      ;Routinen fuer EM256-RAM-Floppy
                         C      ;==============================
                         C      ;
                         C      ;Aktivieren / Deaktivieren der RAM des EM256
                         C      ;Eintritt: <A> - Tracknummer, <dsectr> - Sektornummer
                         C      ;Austritt: <DE>- Anfangsadresse des Sektors
                         C      ;
  E440    57             C      ramon:	ld	d,a		;<a>=  0  0 S1 S0 P3 P2 P1 P0
  E441    0F             C      	rrca			;          Segment   Page   
  E442    0F             C      	rrca
  E443    0F             C      	rrca
  E444    0F             C      	rrca			;<a>= P3 P2 P1 P0  0  0 S1 S0
  E445    E6 3F          C      	and	3fh		;   =  0  0 P1 P0  0  0 S1 S0
  E447    F6 40          C      	or	high(hbemadr)	;   = H3 H2 P1 P0  0  0 S1 S0
  E449    47             C      	ld	b,a		;H3,H2 sind ext. Adresse!!
BIOS CP/A, Buerocomputer (A5120/30 u. ae.)	MACRO-80 V3.50	25-Oct-85	Page	1-98


  E44A    7A             C      	ld	a,d
  E44B    2F             C      	cpl
  E44C    E6 0C          C      	and	0ch		;<a>=  0  0  0  0 /P3/P2  0  0
  E44E    B0             C      	or	b		;   = H3 H2 P1 P0 /P3/P2 S1 S0
  E44F    47             C      	ld	b,a		;Low-Nibble gleichgueltig (retten)
  E450    0E AF          C      	ld 	c,modadr+7	;Adressierung 16*4-RAM
  E452    E6 0C          C      	and	0ch		;<a>=  0  0  0  0 /P3/P2  0  0     
                         C      				;EM256 erkennt sich auf em256adr
                         C      				;Write enable, Page enable
  E454    ED 79          C      	out	(c),a
  E456    78             C      	ld	a,b
  E457    E6 03          C      	and	3		;Segmentnummer
  E459    F6 10          C      	or	1 shl reset16	;U8000-Reset, RAM-Enable
  E45B    D3 A9          C      	out	(modadr+1),a	;RAM scharf
  E45D    78             C      	ld	a,b
  E45E    E6 F0          C      	and	0f0h
  E460    57             C      	ld 	d,a		;Page erscheint auf Adr. in DE
  E461    AF             C      	xor 	a
  E462    5F             C      	ld	e,a
  E463    32 E498        C      	ld	(parerr),a	;Paritaetsfehler reset
  E466    3A DEFF        C      	ld	a,(dsectr)	;offset aus Sektornummer berechnen
  E469    3D             C      	dec	a
  E46A    67             C      	ld 	h,a
  E46B    2E 00          C      	ld	l,0
  E46D    CB 3C          C      	srl	h
  E46F    CB 1D          C      	rr	l		
  E471    19             C      	add	hl,de		;Offset zu Track(Page)Adresse addieren
  E472    C9             C      	ret
  E473    78             C      ramoff:	ld a,b
  E474    E6 0C          C      	and	0ch
  E476    F6 03          C      	or	1 shl n_pagen or 1 shl n_write	;page disable, write disable
  E478    ED 79          C      	out 	(c),a
  E47A    3E 14          C      	ld	a,1 shl reset16 or 1 shl n_ramen
  E47C    D3 A9          C      	out	(modadr+1),a
  E47E    C9             C      	ret
                         C      
  E47F    32 E497        C      parrou:	ld	(rettea),a	;Interruptbedienung Paritaetsfehler
  E482    3E 01          C      	ld	a,1		;benoetigt keinen eigenen Stack
  E484    32 E498        C      	ld	(parerr),a	;Kennung Fehler
  E487    DB A9          C      	in	a,(modadr+1)
  E489    CB F7          C      	set	prreset,a
  E48B    D3 A9          C      	out	(modadr+1),a	;Fehler ruecksetzen
  E48D    CB B7          C      	res	prreset,a
  E48F    D3 A9          C      	out	(modadr+1),a
  E491    3A E497        C      	ld	a,(rettea)
  E494    FB             C      	ei
  E495    ED 4D          C      	reti
                         C      
  E497    00             C      rettea:	db	0		;A bei Parityinterrupt
  E498    00             C      parerr:	db	0		;Paritaetsfehlerspeicher
                         C      
                         C      
                         C      ;*************************************************************
                         C      ; Steuertabellen fuer RAM-Floppy
                         C      ;*************************************************************
                         C      
  E499                   C      dphem:
  E499    0000           C      dphm:	dw	0	;kein Sektorversatz
  E49B    0000 0000      C      	dw	0,0,0
  E49F    0000           C      
  E4A1    F00C           C      	dw	dirbuf
  E4A3    E4A9 0000      C      	dw	dpbem,0,alvem
BIOS CP/A, Buerocomputer (A5120/30 u. ae.)	MACRO-80 V3.50	25-Oct-85	Page	1-99


  E4A7    F1E2           C      
                         C      
  E4A9                   C      dpbem:
  E4A9    0020           C      dpbm:	dw	32	;Recs per Track
  E4AB    03 07 00       C      	db	3,7,0	;1k-BDOS-Bloecke 
  E4AE    00FF           C      	dw	256-1	;256k
  E4B0    003F           C      	dw	64-1	;64 Dir-.Eintraege
  E4B2    C0 00          C      	db	0c0h,0	;Alloc. fuer 64 Dir.
  E4B4    0000           C      	dw	0	;kein check
  E4B6    0000           C      	dw	0	;Offset: keine Systemspuren
  E4B8    80             C      	db	80h	;kein Disketten-DPB
                         C      
  E499                   C      dpham	aset	dphm		;definieren LW "M:"
                                 ENDIF
                                 IF mkd256
                                 ENDIF
                                 IF kes
                                 ENDIF
                                 IF raf
                                 ENDIF
                                 IF rna
                                 ENDIF
                                
                         C      	include BIOSTIM
                         C      ;*************************************************************
                         C      ;	Zeitgeberdienst
                         C      ; 15.06.88
                         C      ; - BAB2 als Standard
                         C       IF cpu eq c1715
                         C       ENDIF
                         C      ; - zusaetzliche Laufwerksabschaltung ueber Zeittakt eingefuehrt
                         C      ; - Abfrage von 'synsem' in 1-sec-Interrupt entfernt (kein setbs/setram notw.)
                         C      ; 24.09.88
                         C      ; - Bildschirmpuffer kann ausserhalb des normalen RAM's liegen
                         C      ; 09.10.88
                         C      ; - Pflege der Statuszeile nur bei stzaus=0
                         C      ; 23.12.88
                         C      ; - Einbau der Pflege des Datums
                         C      ; 07.01.89
                         C      ; - Tastaturpolling nur wenn Zugriff zur Statuszeile erlaubt
                         C      ; 20.03.89
                         C      ; - Laufwerksabschaltung ueber Zeittakt nur bei FDC K5120/22 und F1715
                         C      ;*************************************************************
                         C      
                         C       IF1
                         C       ENDIF
                         C      
                         C      ; 5ms/25ms an
  E4B9                   C      tim5on:
                         C       IF cpu eq c1715
                         C       ENDIF
  E4B9    3E B1          C      	ld	a,10110001b
                         C      	;int./zeitg./vort.256/pos.flanke/naechst.zykl./keine zk/weiter/1
  E4BB    F3             C      tim5ot:	DI
  E4BC    D3 0E          C      	out	(sysctc+tim5ct),a
  E4BE    FB             C      	EI
  E4BF    C9             C      ret:	ret
                         C      
                         C      ; 5ms/25ms aus
  E4C0                   C      tim5of:
                         C       IF cpu eq c1715
                         C       ENDIF
BIOS CP/A, Buerocomputer (A5120/30 u. ae.)	MACRO-80 V3.50	25-Oct-85	Page	1-100


  E4C0    3E 31          C      	ld	a,00110001b	;kein int./...
  E4C2    18 F7          C      	jr	tim5ot
                         C      
                         C       IF cpu eq c1715
                         C       ELSE
                         C      ; 1s an
  E4C4    3E D1          C      tim1on:	ld	a,11010001b
                         C      	;int./zaehler//pos.flanke//keine zk/weiter/1
  E4C6    F3             C      tim1ot:	DI
  E4C7    D3 0F          C      	out	(sysctc+tim1ct),a
  E4C9    FB             C      	EI
  E4CA    C9             C      	ret
                         C      ; 1s aus
  E4CB    3E 51          C      tim1of:	ld	a,01010001b	;kein int./...
  E4CD    18 F7          C      	jr	tim1ot
                         C       ENDIF
                         C      
                         C      ; Interr.routine 5ms/25ms
  E4CF                   C      tim5it:
                         C       IF stpvar or monitor
  E4CF    22 E4D7        C      	ld	(t5ihl),hl	;retten hl
  E4D2    21 E600        C      	ld	hl,chksp	;Test auf haengende Spezialfktnen
  E4D5    E5             C      	push	hl		;nach const-Aufruf in CTC-Interrupt
  E4D6    21 0000        C      	ld	hl,0		;wiederherstellen hl
  E4D7                   C      t5ihl	equ	$-2
                         C       ENDIF
  E4D9    ED 73 E4F8     C      	ld	(intsp),sp
  E4DD    31 F00C        C      	ld	sp,intstk
  E4E0    F5             C      	push	af
  E4E1    E5             C      	push	hl
  E4E2    D5             C      	push	de
  E4E3    C5             C      	push	bc
  E4E4    2A 0041        C      	ld	hl,(tim5cn)
  E4E7    23             C      	inc	hl
  E4E8    22 0041        C      	ld	(tim5cn),hl
                         C       IF cpu eq c1715
                         C       ENDIF
  E4EB    3A D03D        C      	ld	a,(synflg)
  E4EE    CB 77          C      	bit	stzaus,a	;Zugriff zur Statuszeile erlaubt?
  E4F0    CC D157        C      intkbd:	call	z,kbdsti	;ja, Tastatur abfragen und puffern
                         C      				;auf 'ld hl,.. .' waehrend Lampen-Ausgabe
  E4F3                   C      intrbc:				;allg. Interr.-ausgang
  E4F3    C1             C      	pop	bc
  E4F4    D1             C      	pop	de
  E4F5                   C      intrhl:				;allg. Interr.-ausgang
  E4F5    E1             C      	pop	hl
  E4F6                   C      intraf:				;allg. Interr.-ausgang
  E4F6    F1             C      	pop	af
  E4F7    31 0000        C      	ld	sp,0
  E4F8                   C      intsp	equ	$-2
  E4FA                   C      intret:				;allg. Interr.-ausgang
  E4FA    FB             C      	ei
  E4FB    ED 4D          C      	reti
                         C      
                         C       IF cpu ne c1715
                         C      ; Interr.routine 1s
  E4FD    ED 73 E4F8     C      tim1it:	ld	(intsp),sp
  E501    31 F00C        C      	ld	sp,intstk
  E504    F5             C      	push	af
  E505    E5             C      	push	hl
  E506    D5             C      	push	de
  E507    C5             C      	push	bc
BIOS CP/A, Buerocomputer (A5120/30 u. ae.)	MACRO-80 V3.50	25-Oct-85	Page	1-101


  E508    CD E50D        C      	call	tim1up
  E50B    18 E6          C      	jr	intrbc
                         C       ENDIF
                         C      
                         C      ; Reaktionsroutine fuer 1 sec Interrupt
  E50D    2A 0043        C      tim1up:	ld	hl,(tim1cn)
  E510    2B             C      	dec	hl
  E511    22 0043        C      	ld	(tim1cn),hl
                         C       IF uhrvar
                         C      ;1 Sec. BCD-Uhr verwalten
  E514    06 03          C      	ld	b,3		;HH:MM:SS
  E516    21 0052        C      	ld	hl,bcduhr+2	;auf SS
  E519    18 07          C      	jr	t1uhr1		;Einsprung in Zyklus
  E51B    FE 60          C      t1uhr2:	cp	60h		;Uebertrag?
  E51D    38 0E          C      	jr	c,t1uhre	;nein
  E51F    36 00          C      	ld	(hl),0
  E521    2B             C      	dec	hl
  E522    7E             C      t1uhr1:	ld	a,(hl)
  E523    C6 01          C      	add	a,1		;kein "inc"-Befehl!
  E525    27             C      	daa
  E526    10 F3          C      	djnz	t1uhr2		;Sec., Min. haben 60
  E528    FE 24          C      	cp	24h		;Std. haben 24
  E52A    38 01          C      	jr	c,t1uhre	;kein Uebertrag
  E52C    AF             C      	xor	a		;A:=0, nc fuer Datumuebertrag einstellen
  E52D    77             C      t1uhre:	ld	(hl),a
                         C        IF datvar
                         C        ENDIF
                         C       ENDIF
  E52E    3A E4F0        C      	ld	a,(intkbd)	;lampen aktiv?
  E531    FE 21          C      	cp	021h		;  call-Befehl oder ld hl,...
  E533    C4 D2B0        C      	call	nz,lampen	;nein, Aktualisierung Lampen
                         C      
  E536    21 E554        C      intcrt:	ld	hl,tim1uu	;auf jp,... waehrend conout
                         C      
                         C       IF cpastz or uhrvar
  E539    3A D03D        C      	ld	a,(synflg)
  E53C    CB 77          C      	bit	stzaus,a	;Pflege der Statuszeile?
  E53E    20 14          C      	jr	nz,nt1stz	;nein
                         C        IF crtbfl eq 0
                         C        ENDIF
                         C       ENDIF
                         C       IF uhrvar
                         C      ; Uhr anzeigen
  E540    21 0050        C      	ld	hl,bcduhr
                         C       IF crtbfl ;Bildschirmpuffer liegt im adressierbaren RAM
                         C        IF cpastz
                         C        ELSE
  E543    11 F848        C      	ld	de,bsanf2+bssp2-8
  E544                   C      bsuhr	equ	$-2		;BS-Puffer-Adr. fuer Uhr
                         C        ENDIF
                         C       ENDIF
  E546    06 03          C      	ld	b,3
  E548    18 04          C      	jr	t1uhr4		;Einsprung in Zyklus
  E54A    3E 3A          C      t1uhr3:	ld	a,':'
  E54C    12             C      	ld	(de),a
  E54D    13             C      	inc	de
  E54E    CD E6D3        C      t1uhr4:	call	mbreco
  E551    23             C      	inc	hl
  E552    10 F6          C      	djnz	t1uhr3
                         C        IF crtbfl
  E554                   C      t1uhrn:
                         C        ENDIF
BIOS CP/A, Buerocomputer (A5120/30 u. ae.)	MACRO-80 V3.50	25-Oct-85	Page	1-102


                         C       ENDIF
                         C      
                         C       IF cpastz
                         C       ENDIF ;cpastz
                         C      
                         C       IF cpastz or uhrvar
                         C        IF crtbfl eq 0 ;Bildschirmpuffer liegt nicht im adressierbaren RAM
                         C        ENDIF ;crtbfl eq 0
                         C       ENDIF ;cpastz or uhrvar
                         C      
                         C       IF cpastz
                         C       ENDIF ;cpastz
                         C      
                         C       IF cpastz or uhrvar
                         C        IF crtbfl eq 0 ;Bildschirmpuffer liegt nicht im adressierbaren RAM
                         C        ENDIF
  E554                   C      nt1stz:
                         C       ENDIF
                         C      
  E554                   C      tim1uu:
                         C       IF disknb ne 0
                         C        IF (fdc eq K5120) or (fdc eq K5122) or (fdc eq f1715)
                         C      ; zusaetzliche Laufwerksabschaltung ueber Zeittakt
  E554    3A E1BE        C      	ld	a,(pretx+1)	;Motorabschaltung unterdrueckt?
  E557    B7             C      	or	a
  E558    28 0E          C      	jr	z,t1nmo1	;ja
  E55A    3A E1B6        C      	ld	a,(fl.zto)	;pro Sekunde 5 Umdrehungen
  E55D    D6 04          C      	sub	4		;noch >= 4* 200ms Zeit?
  E55F    30 01          C      	jr	nc,t1nmo2	;ja
  E561    AF             C      	xor	a
  E562    32 E1B6        C      t1nmo2:	ld	(fl.zto),a
  E565    CC E1D0        C      	call	z,headup	;Ueberw.zeit abgelaufen -> Motor aus
  E568                   C      t1nmo1:
                         C        ENDIF
                         C       ENDIF
  E568    2A 0045        C      	ld	hl,(tim1rt)	;Adresse der Nutzerroutine
  E56B    E9             C      	jp	(hl)		;1-sec-Nutzerroutine ausfuehren, ret
                         C      
                         C       IF cpastz or uhrvar
                         C        IF crtbfl eq 0
                         C        ENDIF
                         C       ENDIF
                                
                                 IF	mprot
                                 ENDIF
                                
                                 IF	monitor
                                 ENDIF
                                
                         C      	include BIOSNUC
                         C      ;$$$$$$$$$$$$$$$$$$$$$$$$$$$$$$$$$$$$$$$$$$$$$$$$$$$$$$$$$$$$
                         C      ; Zentrale BIOS-Kompenenten
                         C      ; - rst 38h fuehrt bei Monitor zu seinem Aufruf, sonst Warmstart
                         C      ; - Nachladen CCP aus RAM-Floppy vereinheitlicht (unabh. von RAM-Floppy)
                         C      ; - synflg hinter BIOS-Sprungvektor fuer Modifizierung von aussen
                         C      ; - Verwendung der Interruptsaeule in Generierungsteil verlagert
                         C      ; 25.09.88
                         C      ; - Streichen des Tastaturpuffers in Tastaturstatus
                         C      ; 09.10.88
                         C      ; - Pflege der Statuszeile nur bei stzaus=0
                         C      ; 11.01.89
                         C      ; - Variante wbootv=4 (@CCP.COM) eingefuehrt
BIOS CP/A, Buerocomputer (A5120/30 u. ae.)	MACRO-80 V3.50	25-Oct-85	Page	1-103


                         C      ; 17.05.89
                         C      ; - Generierung ohne LW A moeglich
                         C      ; 05.06.89
                         C      ; - Unterstuetzung NANOS-RAF
                         C      ;$$$$$$$$$$$$$$$$$$$$$$$$$$$$$$$$$$$$$$$$$$$$$$$$$$$$$$$$$$$$
                         C      
                         C       IF iobvar
                         C      ;Verteiler fuer die 1-Zeichen-Kanaele entsprechend IOBYTE:
                         C      ;=========================================================
                         C      
  E56C                   C      const:			; iobyte  00 00 00 xx
  E56C    CD E5CC        C      	call	iodisp
  E56F    07             C      	db	7
  E570    D14F           C      	dw	kbdst		;0 kbd:
  E572    D14F           C      	dw	kbdst		;1 kbd:
  E574    E590           C      	dw	reades		;2 rdr:
  E576    D892           C      	dw	uc1st		;3 uc1: (liefert, ob Z. da)
                         C      
  E578                   C      conin:			; iobyte:  00 00 00 xx
  E578    CD E5CC        C      	call	iodisp
  E57B    07             C      	db	7
  E57C    D1E7           C      	dw	kbdi		;0 kbd:
  E57E    D1E7           C      	dw	kbdi		;1 kbd:
  E580    E59C           C      	dw	reader		;2 rdr:
  E582    D8C1           C      	dw	uc1i		;3 uc1: (wartet, bis Z. da)
                         C      
  E584                   C      conout:			; iobyte:  00 00 00 xx
  E584    CD E5CC        C      	call	iodisp
  E587    07             C      	db	7
  E588    D454           C      	dw	crto		;0 crt:
  E58A    D132           C      	dw	dumo		;1 dum:
  E58C    E5A8           C      	dw	punch		;2 pun:
  E58E    D6EB           C      	dw	uc1o		;3 uc1: (wartet, bis frei)
                         C      
  E590                   C      reades:			; iobyte:   00 00 xx 00
  E590    CD E5CC        C      	call	iodisp
  E593    01             C      	db	1
  E594    D14F           C      	dw	kbdst		;0 kbd:
  E596    D12C           C      	dw	dumst		;1 dum:
  E598    D12C           C      	dw	dumst		;2 dum:
  E59A    D892           C      	dw	uc1st		;3 uc1: (liefert, ob Z. da)
                         C      
  E59C                   C      reader:			; iobyte:   00 00 xx 00
  E59C    CD E5CC        C      	call	iodisp
  E59F    01             C      	db	1
  E5A0    D1E7           C      	dw	kbdi		;0 kbd:
  E5A2    D12F           C      	dw	dumi		;1 dum:
  E5A4    D12F           C      	dw	dumi		;2 dum:
  E5A6    D8C1           C      	dw	uc1i		;3 uc1: (wartet, bis Z. da)
                         C      
                         C      
  E5A8                   C      punch:			; iobyte:   00 xx 00 00
  E5A8    CD E5CC        C      	call	iodisp
  E5AB    03             C      	db	3
  E5AC    D454           C      	dw	crto		;0 crt:
  E5AE    D132           C      	dw	dumo		;1 dum:
  E5B0    E5C0           C      	dw	list		;2 lst:
  E5B2    D6EB           C      	dw	uc1o		;3 uc1: (wartet, bis frei)
                         C      
                         C      
  E5B4                   C      listst:			; iobyte:  xx 00 00 00
  E5B4    CD E5CC        C      	call	iodisp
BIOS CP/A, Buerocomputer (A5120/30 u. ae.)	MACRO-80 V3.50	25-Oct-85	Page	1-104


  E5B7    05             C      	db	5
  E5B8    D755           C      	dw	ttyst		;0 tty:
  E5BA    D12C           C      	dw	crtst		;1 crt:
  E5BC    D75B           C      	dw	lptst		;2 lpt:
  E5BE    D12C           C      	dw	dumst		;3 dum:
                         C      
  E5C0                   C      list:			; iobyte:  xx 00 00 00
  E5C0    CD E5CC        C      	call	iodisp
  E5C3    05             C      	db	5
  E5C4    D6DF           C      	dw	ttyo		;0 tty:
  E5C6    D454           C      	dw	crto		;1 crt:
  E5C8    D6E5           C      	dw	lpto		;2 lpt:
  E5CA    D132           C      	dw	dumo		;3 dum:
                         C      
                         C      
                         C      ; IOBYTE-Auswertung - Verteilung auf die physischen Geraete
                         C      ; ---------------------------------------------------------
                         C      ; A,HL werden zerstoert
                         C      ; Anwender-IX wird gerettet, darf von Treiber-Routine zerstoert werden
                         C      ; damit kann Treiber auch aus Interrupt-Routine aufgerufen werden
                         C      
  E5CC                   C      iodisp:
  E5CC    E1             C      	pop	hl
  E5CD    C5             C      	push	bc
  E5CE    46             C      	ld	b,(hl)
  E5CF    23             C      	inc	hl
  E5D0    3A 0003        C      	ld	a,(iobyte)
  E5D3    0F             C      iodis1: rrca
  E5D4    10 FD          C      	djnz	iodis1
  E5D6    E6 06          C      	and	6
  E5D8    4F             C      	ld	c,a
  E5D9    09             C      	add	hl,bc
  E5DA    7E             C      	ld	a,(hl)
  E5DB    23             C      	inc	hl
  E5DC    66             C      	ld	h,(hl)
  E5DD    6F             C      	ld	l,a
  E5DE    C1             C      	pop	bc
  E5DF    DD E5          C      	push	ix		;retten Anwender-IX
  E5E1    CD E6B8        C      	call	callhl
  E5E4    DD E1          C      	pop	ix		;wiederherstellen Anwender-IX
  E5E6    C9             C      	ret
                         C      
                         C       ENDIF
                         C      
                         C      ;************************************************************
                         C      ;	Spezialroutinen
                         C      ;************************************************************
                         C      
                         C      	IF	monitor
                         C      	ENDIF
                         C      
                         C      
                         C      ; Arbeit mit asynchronen Sonderaktionen
                         C      ;======================================
                         C      ; Die folgenden beiden Routinen werden vom BIOS immer dann aufgerufen,
                         C      ; wenn wegen zeitkritischer (z.B. Floppy-Bedienung) oder anderer
                         C      ; BIOS-Arbeit (z.B. Bildschirmrollen) keine parallelen Sonderaktionen
                         C      ; erlaubt sind.
                         C      
                         C      ; Reg A bleibt erhalten
  E5E7    F5             C      delsps: push	af
  E5E8    2A 004A        C      	ld	hl,(kritbg)	;evtl. Nutzerroutine fuer Beginn krit. BIOS
BIOS CP/A, Buerocomputer (A5120/30 u. ae.)	MACRO-80 V3.50	25-Oct-85	Page	1-105


  E5EB    CD E6B8        C      	call	callhl		;aufrufen
  E5EE    F1             C      	pop	af
  E5EF    21 D03E        C      	ld	hl,synsem	;Verzoegern Sonderaktionen
  E5F2    34             C      	inc	(hl)
  E5F3    C9             C      	ret
                         C      
                         C      ; Reg A bleibt erhalten
  E5F4    F5             C      delspr: push	af
  E5F5    2A 004C        C      	ld	hl,(kriten)	;evtl. Nutzerroutine fuer Ende krit. BIOS
  E5F8    CD E6B8        C      	call	callhl		;aufrufen
  E5FB    F1             C      	pop	af
  E5FC    21 D03E        C      	ld	hl,synsem	;Zulassen Sonderaktionen
  E5FF    35             C      	dec	(hl)
                         C      
                         C       IF stpvar or monitor
                         C      
                         C      ; Test auf zwischenzeitliche Anforderung von Sonderroutinen
                         C      ;----------------------------------------------------------
                         C      
                         C      ; Diese Routine wird nach dem Lesen eines Tastaturzeichens
                         C      ; als "Ohr" eingeschoben, bevor zur eigentlichen Interrupt-
                         C      ; adresse zurueckgekehrt wird. Sie wird nicht innerhalb der
                         C      ; Interruptroutine ausgefuehrt, um mit offenen Interrupts
                         C      ; arbeiten zu koennen.
                         C      ; maximale Stackbelastung nach RETI von Interruptroutinen:
                         C      ; -	Return-Adresse zum Nutzer
                         C      ; -	AF
  E600    F3             C      chksp:	di
  E601    F5             C      	push	af		;A und F Reg retten
  E602    3A D03E        C      	ld	a,(synsem)
  E605    B7             C      	or	a		;asynchr. Routinen zugelassen?
  E606    C2 E61D        C      	jp	nz,chkspx	;nein
  E609    3C             C      	inc	a		;weiteren Eintritt verhindern
  E60A    32 D03E        C      	ld	(synsem),a
  E60D    FB             C      chkspn: ei
  E60E    3A D03D        C      	ld	a,(synflg)	;inzw. (neue) Anforderung?
  0000                   C      rqmask	aset	0
                         C       IF monitor
                         C       ENDIF
                         C       IF stpvar
  0010                   C      rqmask	aset	rqmask+(1 shl stoprq)
                         C       IF chdvar
  0018                   C      rqmask	aset	rqmask+(1 shl synlrq)
                         C       ENDIF
                         C       ENDIF
  E611    E6 18          C      	and	rqmask
  E613    C2 E620        C      	jp	nz,chkspd	;ja, ausfuehren
  E616    3A D03E        C      	ld	a,(synsem)
  E619    3D             C      	dec	a
  E61A    32 D03E        C      	ld	(synsem),a
  E61D    F1             C      chkspx: pop	af
  E61E    FB             C      	ei
  E61F    C9             C      	ret
                         C      
                         C      ; asynchrone Aktionen ausfuehren
  E620                   C      chkspd:
                         C       IF monitor
                         C       ENDIF
                         C      
                         C       IF stpvar
  E620    3A D03D        C      	ld	a,(synflg)
  E623    CB 67          C      	bit	stoprq,a	;inzwischen Stop-Forderung?
BIOS CP/A, Buerocomputer (A5120/30 u. ae.)	MACRO-80 V3.50	25-Oct-85	Page	1-106


  E625    28 10          C      	jr	z,nstpsp	;nein
  E627    CB A7          C      	res	stoprq,a
  E629    32 D03D        C      	ld	(synflg),a
  E62C    F1             C      	pop	af		;Nutzer-Stackbelastung verringern
  E62D    22 E665        C      	ld	(asynhl),hl	;HL freimachen
  E630    21 E668        C      	ld	hl,stoprt	;Routine
  E633    CD E651        C      	call	asynrt		;aufrufen mit eigenem Stack
  E636    F5             C      	push	af
  E637                   C      nstpsp:
                         C      
                         C       IF chdvar
  E637    3A D03D        C      	ld	a,(synflg)
  E63A    CB 5F          C      	bit	synlrq,a	;inzwischen LST:-Synchr.?
  E63C    28 10          C      	jr	z,nsynlr	;nein
  E63E    CB 9F          C      	res	synlrq,a
  E640    32 D03D        C      	ld	(synflg),a
  E643    F1             C      	pop	af
  E644    22 E665        C      	ld	(asynhl),hl
  E647    21 D768        C      	ld	hl,lsynch
  E64A    CD E651        C      	call	asynrt
  E64D    F5             C      	push	af
  E64E                   C      nsynlr:
                         C       ENDIF
                         C       ENDIF	;stpvar
                         C      
  E64E    C3 E60D        C      	jp	chkspn		;Test auf neue Requests
                         C      
                         C       IF stpvar or chdvar
                         C      ; Asynchrone Routine (HL) mit eigenem Stack aufrufen
                         C      ;---------------------------------------------------
                         C      
  E651    ED 73 E662     C      asynrt: ld	(asynsv),sp	;asynchr. Routinen haben
  E655    31 EFF4        C      	ld	sp,stpstk	;ein eigenes Stack
  E658    F5             C      	push	af
  E659    D5             C      	push	de
  E65A    C5             C      	push	bc
  E65B    CD E6B8        C      	call	callhl		;Routine aufrufen
  E65E    C1             C      	pop	bc
  E65F    D1             C      	pop	de
  E660    F1             C      	pop	af
  E661    31 0000        C      	ld	sp,0		;SP wiederherstellen
  E662                   C      asynsv	equ	$-2
  E664    21 0000        C      	ld	hl,0		;gerettetes hl wiederherst.
  E665                   C      asynhl	equ	$-2
  E667    C9             C      	ret
                         C       ENDIF
                         C      
                         C       IF stpvar
                         C      ; Asynchrone Stop-Routine
                         C      ;------------------------
  E668                   C      stoprt:
                         C       IF disknb ne 0
  E668    CD E1D0        C      	call	headup		;Disk-Kopf abheben
                         C       ENDIF
  E66B    CD E6A2        C      stopz:	call	stpchp		;holen naechste phys. Taste
                         C      
                         C       IF umlaut
  E66E    FE 75          C      	cp	'u'		;Umlaut-Modus umschalten ?
  E670    28 04          C      	jr	z,stopzu
  E672    FE 55          C      	cp	'U'
  E674    20 08          C      	jr	nz,stopnu	;Nein !
  E676    21 D03D        C      stopzu: ld	hl,synflg	;Umlaute-Flag im Flagbyte
BIOS CP/A, Buerocomputer (A5120/30 u. ae.)	MACRO-80 V3.50	25-Oct-85	Page	1-107


  E679    7E             C      	ld	a,(hl)
  E67A    EE 04          C      	xor	1 shl umlflg	;umschalten
  E67C    77             C      	ld	(hl),a
  E67D    C9             C      	ret
  E67E                   C      stopnu:
                         C       ENDIF
                         C      
                         C       IF chdvar
  E67E    FE FB          C      	cp	zblmin		;"- im Ziffernblock": Hardcopy BS -> LIST?
  E680    CA D61A        C      	jp	z,crthrd	;ja, ausfuehren
  E683    FE CD          C      	cp	spcins		;"INS": I/O-Byte im LST:Kanal weiterschalten?
  E685    20 08          C      	jr	nz,stopz2	;nein
  E687    21 0003        C      	ld	hl,iobyte
  E68A    7E             C      	ld	a,(hl)
  E68B    C6 40          C      	add	a,40h		;Ueberlauf wird ignoriert
  E68D    77             C      	ld	(hl),a
  E68E    C9             C      	ret
  E68F                   C      stopz2:
                         C      
                         C       IF l2bahn
                         C       ENDIF
                         C       ENDIF
                         C      
                         C       IF cpastz or uhrvar
  E68F    FE EE          C      	cp	pfec		;"F14": Status-Anzeige ein/aus?
  E691    20 08          C      	jr	nz,stopz3	;nein
  E693    21 D03D        C      	ld	hl,synflg
  E696    7E             C      	ld	a,(hl)
  E697    EE 40          C      	xor	1 shl stzaus	;Status-Anzeige ein/aus
  E699    77             C      	ld	(hl),a
  E69A    C9             C      	ret			;fertig
  E69B                   C      stopz3:
                         C       ENDIF
                         C      
                         C       IF costu
                         C       ENDIF
                         C      
  E69B    D6 C7          C      	sub	kcurpd		;"Page down": ^C ?
  E69D    C0             C      	ret	nz		;nein, Stop-Ende
  E69E    32 D03E        C      	ld	(synsem),a	;falls rst 0 nicht in BIOS fuehrt
  E6A1    C7             C      	rst	0		;sonst Warmstart
                         C      
                         C      ; Holen naechste Taste physisch
  E6A2    21 D03D        C      stpchp: ld	hl,synflg
  E6A5    CB FE          C      	set	phyact,(hl)	;naechste Taste physisch
  E6A7    E5             C      	push	hl
  E6A8    CD E6AF        C      	call	stopch		;holen naechstes Tastaturz.
  E6AB    E1             C      	pop	hl
  E6AC    CB BE          C      	res	phyact,(hl)	;physisches Lesen beendet
  E6AE    C9             C      	ret
                         C      
                         C      ; Holen naechste Taste im Stopzustand
  E6AF    CD D5FB        C      stopch: call	swilmp		;Stop-Lampe an
  E6B2    CD D1E7        C      	call	kbdi		;Warten auf naechstes Zeichen
  E6B5    C3 D5FB        C      	jp	swilmp		;danach Stop-Lampe aus
                         C      
                         C       ENDIF ;stpvar
                         C       ENDIF ;asynchr. Routinen
                         C      
                         C      ;***************************************************
                         C      ;	Allgemeine BIOS-Hilfsprogramme
                         C      ;***************************************************
BIOS CP/A, Buerocomputer (A5120/30 u. ae.)	MACRO-80 V3.50	25-Oct-85	Page	1-108


                         C      
                         C      ; Aufruf der Routine (HL)
  E6B8    E9             C      callhl: jp	(hl)
                         C      
                         C      ; Ausgabe Text ab (HL) bis 00h auf CON: und evtl. LST:
  E6B9    7E             C      putmes: LD	A,(HL)
  E6BA    B7             C      	OR	A
  E6BB    C8             C      	RET	Z
  E6BC    E5             C      	PUSH	HL
  E6BD    4F             C      	LD	C,A
  E6BE    CD D00C        C      	CALL	conol
  E6C1    E1             C      	POP	HL
  E6C2    23             C      	INC	HL
  E6C3    18 F4          C      	JR	putmes
                         C      
                         C      ; Ausgabe Text ab (HL) mit exakter Laenge "stzbl" in Statuszeile
                         C       IF cpastz
                         C       ELSE
  E6B9                   C      biosms	equ	putmes	;0dh,0ah,...,07h,00h im Text ergaenzen!!
                         C       ENDIF
                         C      
                         C      ;	Wait 0.01 sec * (B)
                         C      ; Reg HL bleibt erhalten
  E6C5    C5             C      wait10: push	bc
  E6C6    0E 0A          C      	ld	c,10		;10* 1ms warten
  E6C8    06 BD          C      wait2z: ld	b,189		;(189*13)/(256*9600)=0.001
  E6CA    10 FE          C      wait1z: djnz	wait1z		;1ms warten
  E6CC    0D             C      	dec	c
  E6CD    20 F9          C      	jr	nz,wait2z
  E6CF    C1             C      	pop	bc
  E6D0    10 F3          C      	djnz	wait10
  E6D2    C9             C      	ret
                         C      
                         C      ;************************************************************
                         C      ;	zentral verwendete Rueckkonvertierungsroutinen
                         C      ;************************************************************
                         C      
                         C       IF monitor or errvar or iobvar or uhrvar or mprot
                         C      
                         C      ; Rueckkonvertieren Byte ab (HL) nach (DE)
                         C      ; RET: 2 Zeichen ab (DE), DE zeigt auf naechstes freies Byte
  E6D3    7E             C      mbreco: ld	a,(hl)
                         C      
                         C      ; Rueckkonvertieren Byte in A nach (DE)
                         C      ; RET: 2 Zeichen ab (DE), DE zeigt auf naechstes freies Byte
  E6D4    CD E6D7        C      mrecoa: call	mreca
                         C      
                         C      ; Rueckkonvertieren A in HEX-Ziffern nach (DE)
                         C      ; RET: A um 4 bits nach rechts rotiert
                         C      ;      DE zeigt auf naechstes Byte
  E6D7                   C      mrecol:
  E6D7    0F             C      mreca:	rrca			;linkes Halbbyte
  E6D8    0F             C      	rrca
  E6D9    0F             C      	rrca
  E6DA    0F             C      	rrca
  E6DB                   C      mrecor:				;rechtes Halbbyte
  E6DB    F5             C      	push	af		;fuer 2. mreca-Aufruf retten
  E6DC    E6 0F          C      	and	0fh
  E6DE    D6 0A          C      	sub	9+1
  E6E0    38 02          C      	jr	c,mrecod	;0..9
  E6E2    C6 07          C      	add	a,7		;A..F
  E6E4    C6 3A          C      mrecod: add	a,'0'+10
BIOS CP/A, Buerocomputer (A5120/30 u. ae.)	MACRO-80 V3.50	25-Oct-85	Page	1-109


  E6E6    12             C      	ld	(de),a
  E6E7    13             C      	inc	de
  E6E8    F1             C      	pop	af
  E6E9    C9             C      	ret
                         C      
                         C       ENDIF
                         C      
                         C       IF monitor or cpastz
                         C       ENDIF
                         C      
                         C      
                         C      ;*************************************************************
                         C      ;	wiederholter Kaltstart
                         C      ;*************************************************************
  E6EA                   C      kalts1:
                         C       IF cpu eq k2521
                         C       ENDIF
                         C       IF (cpu eq k2526) or (cpu eq c1715)
  E6EA    CD E4C0        C      	call	tim5of		;totlegen aller Interruptquellen
                         C        IF cpu eq k2526
  E6ED    CD E4CB        C      	call	tim1of
                         C        ENDIF
                         C        IF cpu eq c1715
                         C        ENDIF
  E6F0    F3             C      	di
                         C        IF cpu eq k2526
  E6F1    3E F7          C      	ld	a,0f7h
  E6F3    D3 0A          C      	out	(0ah),a		;Lade-ROM zuschalten
                         C        ENDIF
                         C        IF cpu eq c1715
                         C        ENDIF
  E6F5    C7             C      	rst	0		;RESET
                         C       ENDIF
                         C      
                         C      ;*************************************************************
                         C      ;	Warmstart
                         C      ;*************************************************************
                         C       if1
                         C       endif
                         C      
                         C       IF	wbootv eq 1	;Warmstart=Kaltstart
                         C       ELSE
  E6F6    31 0080        C      WARMST: LD	SP,tpa-80h
                         C      
                         C         if	wbootv eq 0		;;CCP-Kopie im BIOS
  E6F9    21 E7B7        C      	ld	hl,ccpkop	;;CCP von Kopie wiederherst.
  E6FC    11 BA00        C      	ld	de,CCP
  E6FF    01 0811        C      	ld	bc,ccpkpl+bdskpl
  E702    ED B0          C      	ldir
                         C         endif
                         C      
                         C         if	(wbootv eq 2) or (wbootv eq 3) or (wbootv eq 4)
                         C         endif ;(wbootv eq 2) or (wbootv eq 3) or (wbootv eq 4)
                         C      
                         C         if (wbootv eq 0) or (wbootv eq 2) or (wbootv eq 3)
  E704    21 BA03        C      	LD	HL,CCP+3	;EINGANG MIT KOMMANDOLOESCHEN
                         C         endif
                         C         if wbootv eq 4
                         C         endif
                         C      	warmin
  E707    F3             C+     wbinit: DI
  E708    E5             C+     	PUSH	HL
BIOS CP/A, Buerocomputer (A5120/30 u. ae.)	MACRO-80 V3.50	25-Oct-85	Page	1-110


  E709    3E F7          C+     	LD	A,high(intvr)
  E70B    ED 47          C+     	LD	I,A
  E70D    ED 5E          C+     	im	2
  E70F    3E C3          C+     	LD	A,0C3H
  E711    32 0000        C+     	LD	(REBOOT),A
  E714    21 0003'       C+     	LD	HL,BIOS+3
  E717    22 0001        C+     	LD	(REBOOT+1),HL
  E71A    32 0005        C+     	LD	(BDOSJP),A
  E71D    21 C206        C+     	LD	HL,BDOS+6
  E720    22 0006        C+     	LD	(BDOSJP+1),HL
  E723    32 0038        C+     	ld	(38h),a		;Breakpoint
  E726    21 0000        C+     	ld	hl,0		;ohne Monitor wie Warmstart
  E729    22 0039        C+     	ld	(38h+1),hl
  E72C    21 D03D        C+     	ld	hl,synflg
  E72F    36 00          C+     	ld	(hl),0
  E731    23             C+     	inc	hl
  E732    36 00          C+     	ld	(hl),0		;synsem:=0
  E734    21 E4BF        C+     	ld	hl,ret
  E737    22 004A        C+     	ld	(kritbg),hl	;leere Routine fuer Beginn kritischer BIOS-Teil
  E73A    22 004C        C+     	ld	(kriten),hl
  E73D    21 E4BF        C+     	ld	hl,ret
  E740    22 0045        C+     	ld	(tim1rt),hl
  E743    CD E4B9        C+     	call	tim5on
  E746    CD E4C4        C+     	call	tim1on
  E749    AF             C+     	xor	a
  E74A    32 D492        C+     	ld	(desc),a	;evtl. ESCAPE-Modus beenden
  E74D    0E 82          C+     	ld	c,82h		;Kursor sichtbar machen
  E74F    CD D454        C+     	call	crto
  E752    3A 0040        C+     	ld	a,(lampbf)
  E755    E6 B3          C+      and (1 shl lmphcp)+(1 shl lmpb2r)+(1 shl lmpb2b)+(1 shl kbdcpb)+(1 shl kbdcal)
  E757    32 0040        C+     	ld	(lampbf),a	;ruecksetzen Lampen
  E75A    21 D381        C+     	ld	hl,kbdsts	;Standard-Stringtabelle wiederherstellen
  E75D    22 D03B        C+     	ld	(kbdsst),hl
  E760    3E FF          C+     	ld	a,0ffh
  E762    32 DEF3        C+     	ld	(dbdev),a
  E765    FB             C+     	EI
  E766    21 0004        C+     setcld: ld	hl,defaul
  E769    4E             C+     	ld	c,(hl)
  E76A    C5             C+     	push	bc
  E76B    79             C+     	ld	a,c
  E76C    E6 0F          C+     	and	0fh
  E76E    4F             C+     	ld	c,a
  E76F    AE             C+     	xor	(hl)
  E770    F6 00          C+     	or	0
  E772    77             C+     	ld	(hl),a
  E773    CD E794        C+     	call	dgetpb
  E776    C1             C+     	pop	bc
  E777    28 ED          C+     	jr	z,setcld
  E779    C9             C+     	ret
                         C       ENDIF	;wbootv ne 1
                         C      
                         C      ;$$$$$$$$$$$$$$$$$$$$$$$$$$$$$$$$$$$$$$$$$$$$$$$$$$$$$$$
                         C      ;	Steuertabellen fuer Massenspeicher
                         C      ;$$$$$$$$$$$$$$$$$$$$$$$$$$$$$$$$$$$$$$$$$$$$$$$$$$$$$$$
                         C       if1
                         C       endif
                         C      
                         C      ; Tabelle der Adressen der DPH's
                         C      ;===============================
                         C      
                         C      ;===============================================
  000D                   C      @din	aset	dphnb
BIOS CP/A, Buerocomputer (A5120/30 u. ae.)	MACRO-80 V3.50	25-Oct-85	Page	1-111


  E77A                   C      dphatb: IRP	di,<A,B,C,D,E,F,G,H,I,J,K,L,M,N,O,P>
                         C      	if	@din eq 0
                         C      	EXITM
                         C      	endif
                         C      @din	aset	@din-1
                         C       IF dpha&di ; Laufwerk A auf erstes definiertes Geraet legen
                         C      dphaA	aset	dpha&di
                         C       ENDIF
                         C      	dw	dpha&di
                         C      	ENDM
  E77A    D03F           C+     	dw	dpha&A
  E77C    D04F           C+     	dw	dpha&B
  E77E    D05F           C+     	dw	dpha&C
  E780    0000           C+     	dw	dpha&D
  E782    0000           C+     	dw	dpha&E
  E784    0000           C+     	dw	dpha&F
  E786    0000           C+     	dw	dpha&G
  E788    0000           C+     	dw	dpha&H
  E78A    0000           C+     	dw	dpha&I
  E78C    0000           C+     	dw	dpha&J
  E78E    0000           C+     	dw	dpha&K
  E790    0000           C+     	dw	dpha&L
  E792    E499           C+     	dw	dpha&M
                         C      
                         C      ; Ermitteln DPH und DPB von (c) nach HL bzw. IX
                         C      ; ret z		DPH existiert nicht, HL=0
                         C      ; ret nz	ok, HL auf DPH, IX auf DPB
                         C      ; BC, DE bleiben erhalten
                         C      ;=====================================================
  E794    D5             C      dgetpb: push	de
  E795    21 0000        C      	ld	hl,0
  E798    79             C      	ld	a,c
  E799    FE 0D          C      	cp	dphnb		;DPH definiert?
  E79B    30 16          C      	jr	nc,dgetp0	;nein
  E79D    EB             C      	ex	de,hl
  E79E    21 E77A        C      	ld	hl,dphatb	;Adresstabelle fuer DPH's
  E7A1    59             C      	ld	e,c
  E7A2    19             C      	add	hl,de
  E7A3    19             C      	add	hl,de
  E7A4    7E             C      	ld	a,(hl)
  E7A5    23             C      	inc	hl
  E7A6    66             C      	ld	h,(hl)
  E7A7    6F             C      	ld	l,a		;hl:=^DPH
  E7A8    E5             C      	push	hl
  E7A9    1E 0A          C      	ld	e,10
  E7AB    19             C      	add	hl,de
  E7AC    5E             C      	ld	e,(hl)
  E7AD    23             C      	inc	hl
  E7AE    56             C      	ld	d,(hl)		;de:=^dpb
  E7AF    D5             C      	push	de
  E7B0    DD E1          C      	pop	ix		;ix:=^dpb
  E7B2    E1             C      	pop	hl
  E7B3    D1             C      dgetp0: pop	de
  E7B4    7C             C      	ld	a,h
  E7B5    B5             C      	or	l		;ret z bei hl=0
  E7B6    C9             C      	ret
                         C      
                         C      
                         C      ;**************************************************
                         C      ;	Arbeits-Felder (ab hier keine Konstanten!!)
                         C      ;	Arbeits-Felder werden benutzt fuer Kaltstart-Routinen
                         C      ;**************************************************
BIOS CP/A, Buerocomputer (A5120/30 u. ae.)	MACRO-80 V3.50	25-Oct-85	Page	1-112


  E7B7                   C      biosds	equ	$
  E7B7                   C      @dsad	aset	biosds
                         C      
                         C      ; ===========allgemeine BIOS-Funktionen=============
                         C      
  0800                   C      ccpkpl	equ	ccpln		;Laenge CCP+ BDOS-Anfang
  0011                   C      bdskpl	equ	11h		;BDOS-Anfang
                         C      
                         C      	if	wbootv eq 0	;CCP-Kopie im BIOS
  E7B7                   C      ccpkop	equ	@dsad
  EFC8                   C      ccpkpe	equ	ccpkop+ccpkpl+bdskpl
  EFC8                   C      @dsad	aset	ccpkpe	;Ende CCP-Kopie
                         C      	endif
                         C      
                         C      	if	(wbootv eq 2) or (wbootv eq 3)
                         C      	endif
                         C      
                         C       IF stpvar
  EFF4                   C      @dsad	aset	@dsad+2*22	;Stack fuer asynchrone Routinen
  EFF4                   C      stpstk	equ	@dsad
                         C       ENDIF
  F00C                   C      @dsad	aset	@dsad+2*12	;Stack fuer Interrupt-Routinen
  F00C                   C      intstk	equ	@dsad
                         C      
                         C      ;=============Disketten-Arbeit============
                         C      
  F00C                   C      dirbuf	equ	@dsad	;Directory-Puffer fuer alle Laufwerke
  F08C                   C      @dsad	aset	@dsad+128
                         C      	IRP	di,<A,B,C,D>
                         C       IF disk&di
                         C      alv&di	equ	@dsad		;;Allocation-Vector Disk.
                         C      	IF	((disk&di mod 1000)/100) eq 5	;;5" 
                         C      	if	((disk&di mod 10000)/1000)	;;DS
                         C      @dsad	aset	@dsad+(400+7)/8 ;;reicht fuer 400k (1K Bloecke)
                         C      				;;	bzw. 800K (2K Bloecke)
                         C      	else					;;SS
                         C      @dsad	aset	@dsad+(200+7)/8 ;;reicht fuer 200k (1K Bloecke)
                         C      				;;	bzw. 400K (2K Bloecke)
                         C      	endif
                         C      	ELSE					;;8" 
                         C      	if	(disk&di ge 10000)		;;MFM
                         C      @dsad	aset	@dsad+(352+7)/8 ;;reicht fuer 704 2K Bloecke
                         C      	else					;;FM
                         C      @dsad	aset	@dsad+(250+7)/8 ;;reicht fuer 250K (1K Bloecke)
                         C      				;;	bzw. 500K (2K-Bloecke)
                         C      	endif
                         C      	ENDIF
                         C      csv&di	equ	@dsad		;;Check Sum
                         C      	IF	(disk&di mod 100) gt 40 ;;8",77 oder 5",80 Track
                         C      	if	((disk&di mod 10000)/1000)	;;DS
                         C      @dsad	aset	@dsad+256/4	;;reicht fuer 256 Dir.eintraege
                         C      	else					;;SS
                         C      @dsad	aset	@dsad+128/4	;;reicht fuer 128 Dir.eintraege
                         C      	endif
                         C      	ELSE				;;5" 40 Track
                         C      	if	((disk&di mod 10000)/1000)	;;DS
                         C      @dsad	aset	@dsad+128/4	;;reicht fuer 128 Dir.eintraege
                         C      	else
                         C      @dsad	aset	@dsad+64/4	;;reicht fuer 64 Dir.eintraege
                         C      	endif
                         C      	ENDIF
                         C       ENDIF
BIOS CP/A, Buerocomputer (A5120/30 u. ae.)	MACRO-80 V3.50	25-Oct-85	Page	1-113


                         C      	ENDM
                         C      
                         C      	if	oss
                         C      	endif
                         C      
                         C      
                         C      	IF	em256
  F1E2                   C      alvem	equ	@dsad		;Allocation Vektor TRAM-Floppy
  F202                   C      @dsad	aset	@dsad+32	;reicht fuer 256k
                         C      ; kein checksum vektor, da nicht wechselbar
  F202                   C      dmabuf	equ	@dsad		;Puffer fuer RAM-Zugriff
  F282                   C      @dsad	aset	@dsad+128
                         C      	ENDIF
                         C      
                         C      	IF	mkd256
                         C      	ENDIF
                         C      
                         C       IF raf
                         C       ENDIF
                         C      
                         C       IF rna
                         C       ENDIF
                         C      
                         C       IF dbufsz gt 7
  F282                   C      dbuf	equ	@dsad		;Diskettenpuffer
  F682                   C      @dsad	aset	@dsad+(1 shl dbufsz)
                         C       ENDIF
                         C      
                         C      ; ============Tastatur=================
                         C      
                         C       IF cpastz
                         C       ELSE
  F682                   C      kbdbuf	equ	@dsad
  F697                   C      @dsad	aset	@dsad+kbdbl+1
                         C       ENDIF
                         C      
                         C      ; Es folgt der Bereich fuer nutzereigene Stringdefinition
                         C      ; immer am Ende, d.h. bis zum Beginn der Interruptsaeule,
                         C      ; damit durch Rundung auf 100h-Grenze freibleibende Bytes
                         C      ; fuer Nutzerstrings zusaetzlich zur Verfuegung stehen.
                         C       IF costu
                         C       ENDIF
                         C      
  F697                   C      biosde	aset	@dsad	;*****Ende BIOS-Arbeitsbereiche*****
                         C      
                         C      
                         C      ; Kontrolle auf Adressenueberschreitung
                         C      ;======================================
                         C       if1
                         C       endif
                         C      
                         C       if biosde gt intvr
                         C       endif
                         C      
                         C      
                         C       if1
                         C       endif
                         C      
  F697                   C      @diff	aset	biosde
                         C      
                         C       if intvr ge @diff
  0100                   C      @diff	aset	(intvr-@diff) shr 8 shl 8
BIOS CP/A, Buerocomputer (A5120/30 u. ae.)	MACRO-80 V3.50	25-Oct-85	Page	1-114


                         C       if @diff gt 100h ;100h als Unschaerfe zulassen
                         C       endif
                         C       endif ;intvr ge @diff
                         C      
                         C       if1
                         C       endif
                         C      
                         C      ;************************************************
                         C      ;	Kaltstart-Rest, der nicht im Anfangslader
                         C      ; Anschlussbedingung:
                         C      ; i A:	Default-Laufwerk (i.a. =Kaltstartlaufwerk)
                         C      ;	Bit 7 =1, wenn kein jungfr. Kaltstart
                         C      ;************************************************
                         C      
  E7B7                   C      KALTST:				;Kaltstart-Initialisierung
                         C      ; Achtung! Weder Stack noch Reg. A benutzen!
  E7B7    F3             C      	di
                         C       IF dev eq k8915
                         C       ENDIF
  E7B8    21 17C6'       C      	ld	hl,kaltsc
  E7BB    11 0180        C      	ld	de,kaltsb
  E7BE    01 0C90        C      	ld	bc,kaltsl
  E7C1    ED B0          C      	ldir			;Kaltstart-Code nach vorn
  E7C3    C3 0180        C      	jp	kaltsb		;und abarbeiten
                         C      	.DEPHASE
                         C      
                         C       IF dev eq OEM
  0180                   C      kaltsb	equ	180h		;Basisadr fuer Kaltstartcode
                         C       ENDIF
                         C       IF dev eq K8915
                         C       ENDIF
  17C6'                  C      kaltsc: .PHASE	kaltsb
                         C      
                         C      ; Loeschen 0..tpa-80h
  0180    21 0000        C      	ld	hl,0
  0183    36 00          C      	ld	(hl),0
  0185    11 0001        C      	ld	de,1
  0188    01 007F        C      	ld	bc,tpa-80h-1
  018B    ED B0          C      	ldir
                         C      ;
  018D    31 0180        C      	ld	sp,kaltsb
  0190    F5             C      	push	af		;merken Default
  0191    E6 80          C      	and	80h		;Bit 7
  0193    32 0AA7        C      	ld	(cjungf),a	;merken
  0196    F1             C      	pop	af
                         C      
  0197    E6 03          C      	and	03h
  0199    32 0004        C      	ld	(defaul),a	;setzen Default-Laufwerk
  019C    32 E771        C      	ld	(clddev),a
                         C      
                         C       if (wbootv eq 2) or (wbootv eq 3) or (wbootv eq 4)
                         C       endif
                         C      
                         C      ; Loeschen BIOS-Arbeitsbreiche zur Spur-Suche
                         C      ;~~~~~~~~~~~~~~~~~~~~~~~~~~~~~~~~~~~~~~~~~~~~
                         C      
  019F    21 E7B7        C      	ld	hl,biosds
  01A2    11 E7B8        C      	ld	de,biosds+1
  01A5    01 0EDF        C      	ld	bc,biosde-biosds-1
  01A8    36 FD          C      	ld	(hl),0fdh
  01AA    ED B0          C      	ldir
                         C      
BIOS CP/A, Buerocomputer (A5120/30 u. ae.)	MACRO-80 V3.50	25-Oct-85	Page	1-115


                         C      ; Definieren Interruptvektor
                         C      ;~~~~~~~~~~~~~~~~~~~~~~~~~~~
  01AC    21 F7D0        C      	LD	HL,intvr
  01AF    7C             C      	LD	A,H
  01B0    ED 47          C      	LD	I,A
  01B2    ED 5E          C      	im	2
                         C       IF (intvec+100h-intvr) eq 256
                         C       ELSE
  01B4    06 30          C      	ld	b,intvec+100h-intvr
                         C       ENDIF
  01B6    36 00          C      intvcl: ld	(hl),0		;vorloeschen Interruptsaeule
  01B8    23             C      	inc	hl
  01B9    10 FB          C      	djnz	intvcl
  01BB    21 D108        C      	ld	hl,cpmx00	;Adr.Sprungvektor CP/M-Erw.
  01BE    22 004E        C      	ld	(cpmext),hl	;eintragen
                         C      
                         C      ; Definieren Arbeitszellen fuer asynchrone Routinen
                         C      ;--------------------------------------------------
                         C      
  01C1    21 E4BF        C      	ld	hl,ret
  01C4    22 004A        C      	ld	(kritbg),hl
  01C7    22 004C        C      	ld	(kriten),hl
                                
                                ;#############################################################
                                ; Kaltstart-Initialisierungen
                                ;----------------------------
                         C      	include BIOSTIMC
                         C      
                         C      ; Kaltstart-Initialisierung Timer
                         C      ;================================
                         C      ; 21.03.89
                         C      
                         C       IF cpu eq c1715
                         C       ELSE
  0002                   C      tim5ct	equ	2
  0003                   C      tim1ct	equ	3
                         C       ENDIF
  01CA    21 E4CF        C      	ld	hl,tim5it	;;int.adr.
  01CD    22 F7FC        C      	ld	(intvec+ivctc0+2*tim5ct),hl
                         C       IF cpu ne c1715
  01D0    21 E4FD        C       	ld	hl,tim1it	;;int.adr. 1 sec
  01D3    22 F7FE        C      	ld	(intvec+ivctc0+2*tim1ct),hl
                         C       ENDIF
  01D6    3E F8          C      	ld	a,ivctc0
  01D8    D3 0C          C      	out	(sysctc),a	;;int.vekt.
  01DA    3E 37          C      	ld	a,00110111b
                         C      ;;kein int./zeitg./vort.256/pos.flanke/naechst.zykl./zk folgt/abbruch/1
  01DC    D3 0E          C      	out	(sysctc+tim5ct),a
  0030                   C      tim5zk	equ	(5*100*cpuclk)/256	;;Zeitkonstante 5 ms
                         C       IF cpu eq c1715
                         C       ELSE
  01DE    3E 30          C      	ld	a,tim5zk		;;zk fuer 5 ms
                         C       ENDIF
  01E0    D3 0E          C       	out	(sysctc+tim5ct),a
                         C       IF cpu ne c1715
  01E2    3E 57          C       	ld	a,01010111b
                         C      ;;kein int./zaehler//pos.flanke//zk folgt/abbruch/1
  01E4    D3 0F          C      	out	(sysctc+tim1ct),a
  01E6    3E C8          C      	ld	a,1000/5		;;zk fuer 1s
  01E8    D3 0F          C      	out	(sysctc+tim1ct),a
                         C       ENDIF
                         C      	include BIOSCHDC
BIOS CP/A, Buerocomputer (A5120/30 u. ae.)	MACRO-80 V3.50	25-Oct-85	Page	1-116


                         C      ; Kaltstart-Initialisierung zeichenorientierte Geraete
                         C      ;=====================================================
                         C      ; 03.04.89
                         C       if cdtpio
                         C       endif
                         C       if iobuc1
                         C       IF (uc1dat xor uc1sta) eq 01b	;Kanal-Nr ist Bit 1 (bei Buerocomp und OEM)
                         C        IF (uc1sta and 10b) eq 00b	;UC1 ist an Kanal A
  01EA    21 D8FF        C      	ld	hl,uc1rin	;;Empf-Interrupt fuer UC1:
  01ED    22 F7DC        C      	ld	(intvec+ivsio6),hl ;;Kanal A
  01F0    21 D949        C      	ld	hl,uc1err	;;spez. Empf.Bedingung fuer UC1:
  01F3    22 F7DE        C      	ld	(intvec+ivsio7),hl ;;Kanal A
                         C        ENDIF
                         C       ENDIF
                         C       endif
                                  IF disknb ne 0
                         C      	include BIOSDSKC
                         C      
                         C      ; Kaltstart-Initialisierung Floppy
                         C      ;=================================
                         C      
                         C      ;; Steuer-PIO A
  01F6    21 E1AD        C      	LD	HL,itimeo		;;Interrupt bei Indexpunkt
  01F9    22 F7E8        C      	LD	(intvec+ivdsk1),HL
  01FC    3E E8          C      	ld	a,ivdsk1
  01FE    D3 11          C      	OUT	(flcoac),A
  0200    3E 7F          C      	LD	A,7FH
  0202    D3 11          C      	OUT	(flcoac),A		;;zunaechst Byte Eingabe
                         C      ;; Daten-PIO B (Lesen)
  0204    D3 17          C      	OUT	(fldabc),A		;;Byte Eingabe
  0206    DB 16          C      	IN	A,(fldabd)		;;Scheineingabe
                         C      ;; weiter Steuer-PIO A
  0208    3E FD          C      	LD	A,11111101b		;;AMF aus
  020A    D3 10          C      	OUT	(flcoad),A
  020C    3E 3F          C      	LD	A,3FH			;;ab jetzt Byte Ausgabe
  020E    D3 11          C      	OUT	(flcoac),A
                         C      ;; Daten-PIO A (Schreiben)
  0210    D3 15          C      	OUT	(fldaac),A		;;Byte Ausgabe
                         C      ;; Steuer-PIO B
  0212    3E FF          C      	LD	A,0FFH			;;Bit E/A
  0214    D3 13          C      	OUT	(flcobc),A
  0216    3E F3          C      	LD	A,11110011b		;;eeee aaee
  0218    D3 13          C      	OUT	(flcobc),A
                         C      
                         C      ;; Ermittlung der vorhandenen Laufwerke
  021A    0E 04          C      	ld	c,maxlw
  021C    16 00          C      	ld	d,0
  021E    3E F7          C      	ld	a,0f7h		;; ohne lock
  0220    07             C      fl.ka1: rlca
  0221    D3 18          C      	out	(flsel),a
  0223    08             C      	ex	af,af'
  0224    06 55          C      	ld	b,85		;; max 85 mal steppen
  0226    DB 12          C      fl.ka2:	in	a,(flcobd)
  0228    07             C      	rlca			;; kam Spur0-Signal?
  0229    30 12          C      	jr	nc,fl.ka4	;; -> ja
  022B    3E 5F          C      	ld	a,01011111b	;; steppen in Richtung Spur 0
  022D    D3 10          C      	out	(flcoad),a
  022F    3E DF          C      	ld	a,11011111b	;; mit Kopf oben
  0231    D3 10          C      	out	(flcoad),a
  0233    26 08          C      	ld	h,8		;; Schrittzeit abwarten
  0235    2D             C      fl.ka3: dec	l
  0236    20 FD          C      	jr	nz,fl.ka3
BIOS CP/A, Buerocomputer (A5120/30 u. ae.)	MACRO-80 V3.50	25-Oct-85	Page	1-117


  0238    25             C      	dec	h
  0239    20 FA          C      	jr	nz,fl.ka3
  023B    10 E9          C      	djnz	fl.ka2		;; -> weiteren Schritt ausfuehren
                         C      ;****Laufwerke immer existent melden wegen 8" Beistell-Laufwerken ohne Strom
                         C      ;***	jr	fl.ka5		;; -> LW nicht existent
                         C      ;***
  023D    CB F2          C      fl.ka4: set	6,d		;; Laufwerk existent melden
  023F    0D             C      fl.ka5: dec	c		;; weiteres LW?
  0240    28 07          C      	jr	z,fl.ka6	;; -> nein
  0242    CB 0A          C      	rrc	d
  0244    CB 0A          C      	rrc	d
  0246    08             C      	ex	af,af'
  0247    18 D7          C      	jr	fl.ka1		;; -> naechstes LW pruefen
                         C      
  0249    7A             C      fl.ka6: ld	a,d
  024A    32 E216        C      	ld	(lwexis),a
                         C      
  024D    3E FF          C      	ld	a,0ffh		;; alle LW ausschalten
  024F    D3 18          C      	out	(flsel),a
                         C      
  0251    AF             C      	xor	a
  0252    32 E217        C      	ld	(alwnr),a	;; LW 0 ist das zuletzt benutzte, Motor ist aus
  0255    32 E218        C      	ld	(aspnr),a	;; steht auf Spur 0
  0258    06 04          C      	ld	b,maxlw
  025A    21 E219        C      	ld	hl,spnrl
  025D    77             C      fl.ka7: ld	(hl),a		;; alle alten Spurnr. sind 0
  025E    23             C      	inc	hl
  025F    10 FC          C      	djnz	fl.ka7
                         C      
                                  ENDIF
                                  IF oss
                                  ENDIF
                                  IF em256
                         C      	include BIOSREMC
                         C      ;;Initialisieren RAM-Floppy mit EM256
                         C      ;;===================================
                         C      ;; 06.02.89
                         C      ;; 09.04.89
                         C      ;; - Fehlerkorrektur: Blockgroesse im DPB ist 1K und nicht 2K
                         C      
                         C      ;;	Bedeutung der Bits der PIO-Ports des EM256
                         C      ;;
                         C      ;;	PIO Port A (alle Bits auf Eingabe)
  0000                   C      pioa_0	equ	0		;;Kennung vom U8000
  0001                   C      pioa_1	equ	1		;;       "
  0002                   C      pioa_2	equ	2		;;       "
  0003                   C      n_vi	equ	3		;;Vektorinterrupt U8000 (negiert)
  0004                   C      int16	equ	4		;;Interrupt vom U8000 an U880
  0005                   C      n_s	equ	5		;;Normal-(1) oder Systemmode(0) des U8000
  0006                   C      m8_16	equ	6		;;8-Bit-(1) oder 16-Bit-Mode(0)
  0007                   C      tren	equ	7		;;Transfer Enable des U8000
                         C      ;;		
                         C      ;;	PIO Port B (b0..b6 Ausgabe, b7 Eingabe)
  0000                   C      sg0p	equ	0		;;fuer U880-Zugriff angewaehltes Segment
  0001                   C      sg1b	equ	1		;;                "
  0002                   C      n_ramen	equ	2		;;RAM-Enable (negiert)
  0003                   C      n_stop	equ	3		;;U8000-Stop (negiert)
  0004                   C      reset16	equ	4		;;U8000-Reset
  0005                   C      n_trq8	equ	5		;;Transferrequest des U880 (negiert)
  0006                   C      prreset	equ	6		;;Reset Paritaetsfehler
  0007                   C      n_pe	equ	7		;;Paritaetsfehler (negiert)
                         C      ;;
BIOS CP/A, Buerocomputer (A5120/30 u. ae.)	MACRO-80 V3.50	25-Oct-85	Page	1-118


                         C      ;;
                         C      ;;Programmierung des 16*4-RAM
                         C      ;;
                         C      ;;     0x/modadr+7    |x|x|x|x| | | | |
                         C      ;;     1x/modadr+7    |x|x|x|x| | | | |
                         C      ;;          .                 .
                         C      ;;          .                 .
                         C      ;;    0Fx/modadr+7    |x|x|x|x| | | | |
                         C      ;;     |     |                 | | | |___0=Page enable
                         C      ;;     |     |                 | | |_____0=Write enable
                         C      ;;     |     |                 | |_______/A14-8  Adressbit14 auf EM256 (neg.)
                         C      ;;     |     |                 |_________/A15-8      "    15        "
                         C      ;;     |     |___________________________Grund(Port)adresse des 16*4-RAM
                         C      ;;     |_________________________________Subadresse, adressiert Page im
                         C      ;;					 gewaehlten Segment
                         C      ;;
                         C      ;; !! b6 und b7 der Subadresse stellen die hoechstwertigen Bits der !!
                         C      ;; !! externen (von der U880-Seite) Adresse fuer den Zugriff dar.   !!
                         C      ;; !! Die wirkliche Adresse auf U8000-Seite ergibt sich durch Sub-  !!
                         C      ;; !! stitution durch die mit /A14-8 u. /A15-8 festgelegten Bits.   !!
                         C      
  0000                   C      n_pagen	equ	0	;;Page enable (negiert)
  0001                   C      n_write equ	1	;;write enable (negiert)
  4000                   C      hbemadr	aset	em256adr and 0c000h
                         C      ;;
  0261    21 E47F        C      emina:	ld 	hl,parrou	;;Interruptadresse Paritaetsfehler
  0264    22 F7E0        C      	ld	(intvec+ivpar),hl;;
                         C      ;;
                         C      ;;initialisieren 1. EM 256
  0267    06 03          C      	ld	b,3
  0269    21 038C        C      	ld	hl,painit	;;em256 PIO Port A
  026C    0E AA          C      	ld	c,modadr+2
  026E    ED B3          C      	otir			;;Initialisieren
                         C      ;;
  0270    06 05          C      	ld	b,5
  0272    21 038F        C      	ld 	hl,pbinit	;;em256 PIO Port B
  0275    0E AB          C      	ld	c,modadr+3
  0277    ED B3          C      	otir			;;Initialisieren
                         C      ;;
  0279    3E 54          C      	ld	a,1 shl prreset or 1 shl reset16 or 1 shl n_ramen
  027B    D3 A9          C      	out	(modadr+1),a	;;Parityreset
  027D    3E 14          C      	ld	a,1 shl n_ramen or 1 shl reset16
                         C            				;;RAM-Disable, U8000 Reset
  027F    D3 A9          C      	out	(modadr+1),a
                         C      ;;
                         C      ;;alle Pages im 16*4-Bit-Speicher mit PAGE Disable, WRITE Disable,
                         C      ;;externe Adresse em256adr initialisieren
                         C      ;;
  0281    01 00AF        C      	ld	bc,modadr+7	;;16*4-RAM, Subadresse 0
  0284    3E 07          C      inloop:	ld a,1 shl n_pagen or 1 shl n_write or hbemadr shr 12
  0286    ED 79          C      	out	(c),a
  0288    3E 10          C      	ld 	a,10h
  028A    80             C      	add	a,b
  028B    47             C      	ld 	b,a		;;naechste Subadresse
  028C    30 F6          C      	jr	nc,inloop
                         C      ;;
                         C      ;;Test ob Ramfloppy vorhanden
  028E    2A 4000        C      	ld	hl,(em256adr)	;;retten aktuellen Inhalt RAM
  0291    E5             C      	push	hl
  0292    21 0000        C      	ld	hl,0
  0295    22 4000        C      	ld	(em256adr),hl	;;und zerstoeren RAM-Inhalt
  0298    AF             C      	xor	a		;;Spur 0
BIOS CP/A, Buerocomputer (A5120/30 u. ae.)	MACRO-80 V3.50	25-Oct-85	Page	1-119


  0299    CD E440        C      	call	ramon		;;scharf
  029C    2A 4000        C      	ld	hl,(em256adr)	;;retten alten Inhalt RAM-Floppy
  029F    E5             C      	push	hl
  02A0    11 A55A        C      	ld	de,0a55ah	;;Bitmuster 5A A5 auf erste beide Bytes
  02A3    ED 53 4000     C      	ld	(em256adr),de	;;der RAM-Floppy oder in normalen RAM
  02A7    2A 4000        C      	ld	hl,(em256adr)	;;Muster zuruecklesen
  02AA    B7             C      	or	a
  02AB    ED 52          C      	sbc	hl,de
  02AD    28 07          C      	jr	z,emt1		
  02AF    CD E473        C      	call	ramoff		;;Muster nicht angekommen
  02B2    E1             C      emt0:	pop	hl
  02B3    37             C      	scf
  02B4    18 17          C      	jr	emt2
  02B6    CD E473        C      emt1:	call	ramoff		;;Test Muster im 8 Bit Speicher
  02B9    2A 4000        C      	ld	hl,(em256adr)
  02BC    B7             C      	or	a
  02BD    ED 52          C      	sbc	hl,de
  02BF    28 F1          C      	jr	z,emt0
  02C1    AF             C      	xor	a		;;Ramfloppy in Ordnung bringen
  02C2    CD E440        C      	call	ramon
  02C5    E1             C      	pop	hl
  02C6    22 4000        C      	ld	(em256adr),hl
  02C9    CD E473        C      	call	ramoff
  02CC    AF             C      	xor	a
  02CD    E1             C      emt2:	pop	hl
  02CE    22 4000        C      	ld	(em256adr),hl
  02D1    30 19          C      	jr	nc,inl001	;;ja, EM256 ist vorhanden
                         C      ;;  EM256 nicht vorhanden,
  02D3    21 0B47        C      	ld	hl,kemlwt
  02D6    36 3F          C      	ld	(hl),'?'	;;in Kaltstart-Text
  02D8    23             C      	inc	hl
  02D9    36 3F          C      	ld	(hl),'?'
  02DB    21 0000        C      	ld	hl,0		;;Laufwerk nicht definiert
  02DE    22 E792        C      	ld	(dphatb+2*('M'-'A')),hl
  02E1    3E C9          C      	ld	a,0c9h		;;RET
  02E3    32 E440        C      	ld	(ramon),a	;;ramon entschaerfen
  02E6    32 E473        C      	ld	(ramoff),a	;;ramoff	"
  02E9    C3 03D0        C      	jp	emine
                         C      ;;
  02EC    AF             C      inl001:	xor 	a
  02ED    32 E498        C      	ld	(parerr),a	;;Paritaetsfehler ruecksetzen
  02F0    CD 0394        C      	call 	tstkng		;;Test, ob Kennung vorhanden
  02F3    28 1C          C      	jr	z,inl004	;;Ja, noch geladen
                         C      
                         C      ;;RAM-Floppy neu anlegen
  02F5    AF             C      inl003:	xor	a
  02F6    CD E440        C      	call	ramon
  02F9    C5             C      	push	bc
  02FA    11 4000        C      	ld	de,em256adr	;;Dir-Eintrag anlegen
  02FD    21 03AF        C      	ld	hl,kenn1
  0300    01 0021        C      	ld	bc,32+1		;;+ 1 Byte 0E5H
  0303    ED B0          C      	ldir
  0305    21 4020        C      	ld 	hl,em256adr+32
  0308    01 0FE0        C      	ld	bc,1000h-31-1
  030B    ED B0          C      	ldir			;;Directory mit 0E5H vollschreiben
  030D    C1             C      	pop	bc
  030E    CD E473        C      	call	ramoff
  0311    3A E498        C      inl004:	ld	a,(parerr)
  0314    3D             C      	dec	a		;;Fehler aufgetreten ?
  0315    20 09          C      	jr	nz,inl005	;; Nein !
  0317    21 0362        C      	ld	hl,parmes
  031A    CD E6B9        C      	call	biosms
BIOS CP/A, Buerocomputer (A5120/30 u. ae.)	MACRO-80 V3.50	25-Oct-85	Page	1-120


  031D    C3 0261        C      	jp	emina
                         C      ;;
                         C      ;; wenn auf Segment 2,1 (Spuren 32,16) die Kennung steht, liegt eine
                         C      ;; abgeruestete Variante des EM256 vor ---> Kapazitaet in DPB verringern
                         C      ;;
  0320                   C      inl005:
  0320    3E FF          C      	ld	a,256-1		;;Volle Bestueckung annehmen
  0322    32 E4AE        C      	ld	(dpbem+dpbsiz),a
  0325    21 0B4E        C      	ld	hl,kemmc
  0328    36 32          C      	ld	(hl),'2'
  032A    23             C      	inc	hl
  032B    36 35          C      	ld	(hl),'5'
  032D    23             C      	inc	hl
  032E    36 36          C      	ld	(hl),'6'
                         C      ;;
  0330    3E 20          C      	ld	a,32		;;Spur 32
  0332    CD 0394        C      	call	tstkng		;;Test: Kennung da?
  0335    C2 03D0        C      	jp	nz,emine	;;Nein, dann volle Bestueckung
                         C      
  0338    3E 7F          C      	ld	a,128-1		;;Ja, dann max.128kByte
  033A    32 E4AE        C      	ld	(dpbem+dpbsiz),a
  033D    21 0B4E        C      	ld 	hl,kemmc
  0340    36 31          C      	ld	(hl),'1'	;;128 k in Meldezeile
  0342    23             C      	inc	hl
  0343    36 32          C      	ld	(hl),'2'
  0345    23             C      	inc	hl
  0346    36 38          C      	ld	(hl),'8'
  0348    3E 10          C      	ld	a,16		;;Spur 16
  034A    CD 0394        C      	call	tstkng		;;Test:	Kennung da?
  034D    C2 03D0        C      	jp	nz,emine	;;Nein,dann 128kByte
                         C      
  0350    3E 3F          C      	ld	a,64-1		;;Ja, dann 64kByte
  0352    32 E4AE        C      	ld	(dpbem+dpbsiz),a
  0355    21 0B4E        C      	ld 	hl,kemmc
  0358    36 20          C      	ld	(hl),' '	;; 64 k in Meldezeile
  035A    23             C      	inc	hl
  035B    36 36          C      	ld	(hl),'6'
  035D    23             C      	inc	hl
  035E    36 34          C      	ld	(hl),'4'
  0360    18 6E          C      	jr	emine
                         C      
  0362    0D 0A 20 50    C      parmes:	db	0dh,0ah,' Paritaetsfehler im EM256, Wiederholung!'
  0366    61 72 69 74    C      
  036A    61 65 74 73    C      
  036E    66 65 68 6C    C      
  0372    65 72 20 69    C      
  0376    6D 20 45 4D    C      
  037A    32 35 36 2C    C      
  037E    20 57 69 65    C      
  0382    64 65 72 68    C      
  0386    6F 6C 75 6E    C      
  038A    67 21          C      
                         C      
  038C    CF             C      painit:	db	0cfh		;;Bit-E/A
  038D    FF             C      	db	0ffh		;;alle Bits Eingabe
  038E    07             C      	db	7		;;Int. verbieten, keine Maske
  038F    E0             C      pbinit: db	ivpar		;;Int.-vektor Paritaetsfehler
  0390    CF             C      	db	0cfh		;;Bit-E/A
  0391    80             C      	db 	80h		;;b7 Eingabe, Rest Ausgabe
  0392    97             C      	db 	97h		;;Maske folgt, 0 loest INT aus, INT Enable
  0393    80             C      	db	80h		;;Paritaetsfehler loest INT aus
                         C      
BIOS CP/A, Buerocomputer (A5120/30 u. ae.)	MACRO-80 V3.50	25-Oct-85	Page	1-121


  0394    CD E440        C      tstkng: call	ramon
  0397    C5             C      	push	bc
  0398    21 03AF        C      	ld	hl,kenn1
  039B    11 4000        C      	ld	de,em256adr
  039E    06 0C          C      	ld	b,12
  03A0    1A             C      testk1:	ld	a,(de)		;;Kennung da ?
  03A1    BE             C      	cp	(hl)
  03A2    20 04          C      	jr	nz,testk2	;;Nein, dann volle Bestueckung
  03A4    23             C      	inc	hl
  03A5    13             C      	inc	de
  03A6    10 F8          C      	djnz	testk1
  03A8    C1             C      testk2:	pop	bc
  03A9    F5             C      	push	af			;;Zero-Flag merken
  03AA    CD E473        C      	call	ramoff
  03AD    F1             C      	pop	af
  03AE    C9             C      	ret
                         C      
                         C      ;; Kennungsmuster fuer Verhindern Loeschen der RAM-Floppy nach Kaltstart
  03AF    1F 40 45 4D    C      kenn1:	db 1fh,'@EMvalid','S' or 80h,'Y' or 80h,'S'	;;User 31
  03B3    76 61 6C 69    C      
  03B7    64 D3 D9 53    C      
  03BB                   C      	ds 20,0
  03CF    E5             C      	db 0e5h
                         C      
  03D0                   C      emine:
                                  ENDIF
                                  IF mkd256
                                  ENDIF
                                  IF kes
                                  ENDIF
                                  IF raf
                                  ENDIF
                                  IF rna
                                  ENDIF
                                
                                ;##############################################################
                                ; Kaltstart-Initialisierung, die vom Bildschirmformat abhaengen
                                ;--------------------------------------------------------------
                         C      	include BIOSCLD1	;Wiederholung mit neuem Bildschirmformat
                         C       IF cpu eq c1715
                         C       ENDIF
                         C      	include BIOSCRTC
                         C      ; Kaltstart-Initialisierung Bildschirm
                         C      ;=====================================
                         C      ; Version 25.09.88
                         C      ;;***naechste frei crtmxx-Marke: crtm49
                         C      
                         C       IF cpu eq k2526 ;BC A5120
                         C      ; automatische Bildschirmerkennung durch Bit 6 des System-PIO's
                         C      ; Bit 6=0 -> Loetbruecke bei grossem (24*80) Bildschirm
  03D0    DB 0A          C      	in	a,(0ah)		;;BAB2/3 (grosser Bildschirm?)
                         C       ENDIF
                         C      ;; Automatische Umschaltung des Bildschirmformates
  03D2    CB 77          C      	bit	6,a		;;BAB2 (24*80)?
  03D4    CA 0472        C      	jp	z,bsbab2	;;ja
                         C      
                         C      ;; Umstellung auf BAB1 (16*64)
                         C      ;;----------------------------
  03D7    21 0001        C      bsbab1:	ld	hl,0-bsend1
  03DA    22 D4AE        C      	ld	(crtm01),hl
  03DD    21 FFC0        C      	ld	hl,bsend1-bssp1+1
  03E0    22 D4B5        C      	ld	(crtm02),hl
BIOS CP/A, Buerocomputer (A5120/30 u. ae.)	MACRO-80 V3.50	25-Oct-85	Page	1-122


                         C       IF inslin
  03E3    22 D5AE        C      	ld	(crtm44),hl
  03E6    22 D5CA        C      	ld	(crtm47),hl
  03E9    22 D5DB        C      	ld	(crtm48),hl
                         C       ENDIF
  03EC    2B             C      	dec	hl
  03ED    22 D55B        C      	ld	(crtm14),hl
                         C       IF inslin
  03F0    22 D5BC        C      	ld	(crtm46),hl
                         C       ENDIF
  03F3    21 FC40        C      	ld	hl,bsanf1+bssp1
  03F6    22 D4B9        C      	ld	(crtm03),hl
  03F9    2B             C      	dec	hl
  03FA    22 D58B        C      	ld	(crtm20),hl
  03FD    21 FC00        C      	ld	hl,bsanf1
  0400    22 D038        C      	ld	(crtcps),hl
  0403    22 D4BC        C      	ld	(crtm04),hl
  0406    22 D510        C      	ld	(crtm09),hl
  0409    22 D569        C      	ld	(crtm16),hl
  040C    22 D572        C      	ld	(crtm17),hl
  040F    22 D587        C      	ld	(crtm19),hl
                         C       IF stpvar
                         C        IF chdvar
  0412    22 D61C        C      	ld	(crtm22),hl
                         C        ENDIF
                         C       ENDIF
                         C       IF mprot
                         C       ENDIF
  0415    21 03C0        C      	ld	hl,bsend1-bsanf1-bssp1+1
  0418    22 D4BF        C      	ld	(crtm05),hl
  041B    21 FFFE        C      	ld	hl,bsend1-1
  041E    22 D4C7        C      	ld	(crtm06),hl
  0421    23             C      	inc	hl
  0422    22 D54D        C      	ld	(crtm13),hl
  0425    22 D575        C      	ld	(crtm18),hl
                         C       IF inslin
  0428    22 D5B9        C      	ld	(crtm45),hl
                         C       ENDIF
  042B    21 003F        C      	ld	hl,bssp1-1
  042E    22 D4CA        C      	ld	(crtm07),hl
  0431    7D             C      	ld	a,l
  0432    32 D540        C      	ld	(crtm11),a
  0435    23             C      	inc	hl
  0436    22 D515        C      	ld	(crtm10),hl
  0439    22 D54A        C      	ld	(crtm12),hl
  043C    22 D563        C      	ld	(crtm15),hl
                         C       IF stpvar
                         C        IF chdvar
  043F    7D             C      	ld	a,l
  0440    32 D623        C      	ld	(crtm24),a
  0443    3E 11          C      	ld	a,bszl1+1
  0445    32 D61F        C      	ld	(crtm23),a
                         C        ENDIF
                         C       ENDIF
  0448    3E 0F          C      	ld	a,bszl1-1
  044A    32 D50A        C      	ld	(crtm08),a
  044D    21 FFC0        C      	ld	hl,0-bssp1
  0450    22 D592        C      	ld	(crtm21),hl
                         C       IF cpastz
                         C       ELSE
  0453    21 F682        C      	ld	hl,kbdbuf
                         C       ENDIF
BIOS CP/A, Buerocomputer (A5120/30 u. ae.)	MACRO-80 V3.50	25-Oct-85	Page	1-123


  0456    22 D22C        C      	ld	(crtm32),hl
  0459    22 D21F        C      	ld	(crtm33),hl
  045C    22 D1C3        C      	ld	(crtm35),hl
  045F    22 051E        C       	ld	(crtm43),hl
                         C       IF stpvar or monitor
  0462    22 D196        C      	ld	(crtm36),hl
                         C       ENDIF
  0465    23             C      	inc	hl
  0466    22 D223        C      	ld	(crtm34),hl
                         C       IF	uhrvar
                         C        IF cpastz
                         C        ELSE
  0469    21 FC38        C      	ld	hl,bsanf1+bssp1-8
                         C        ENDIF
  046C    22 E544        C      	ld	(bsuhr),hl		;;Stelle fuer Uhrzeit
                         C       ENDIF
  046F    C3 050A        C      	jp	bsbabi
                         C      
                         C      ;; Umstellung auf BAB2 (24*80)
                         C      ;;----------------------------
  0472    21 0081        C      bsbab2:	ld	hl,0-bsend2
  0475    22 D4AE        C      	ld	(crtm01),hl
  0478    21 FF30        C      	ld	hl,bsend2-bssp2+1
  047B    22 D4B5        C      	ld	(crtm02),hl
                         C       IF inslin
  047E    22 D5AE        C      	ld	(crtm44),hl
  0481    22 D5CA        C      	ld	(crtm47),hl
  0484    22 D5DB        C      	ld	(crtm48),hl
                         C       ENDIF
  0487    2B             C      	dec	hl
  0488    22 D55B        C      	ld	(crtm14),hl
                         C       IF inslin
  048B    22 D5BC        C      	ld	(crtm46),hl
                         C       ENDIF
  048E    21 F850        C      	ld	hl,bsanf2+bssp2
  0491    22 D4B9        C      	ld	(crtm03),hl
  0494    2B             C      	dec	hl
  0495    22 D58B        C      	ld	(crtm20),hl
  0498    21 F800        C      	ld	hl,bsanf2
  049B    22 D038        C      	ld	(crtcps),hl
  049E    22 D4BC        C      	ld	(crtm04),hl
  04A1    22 D510        C      	ld	(crtm09),hl
  04A4    22 D569        C      	ld	(crtm16),hl
  04A7    22 D572        C      	ld	(crtm17),hl
  04AA    22 D587        C      	ld	(crtm19),hl
                         C       IF stpvar
                         C        IF chdvar
  04AD    22 D61C        C      	ld	(crtm22),hl
                         C        ENDIF
                         C       ENDIF
                         C       IF mprot
                         C       ENDIF
  04B0    21 0730        C      	ld	hl,bsend2-bsanf2-bssp2+1
  04B3    22 D4BF        C      	ld	(crtm05),hl
  04B6    21 FF7E        C      	ld	hl,bsend2-1
  04B9    22 D4C7        C      	ld	(crtm06),hl
  04BC    23             C      	inc	hl
  04BD    22 D54D        C      	ld	(crtm13),hl
  04C0    22 D575        C      	ld	(crtm18),hl
                         C       IF inslin
  04C3    22 D5B9        C      	ld	(crtm45),hl
                         C       ENDIF
BIOS CP/A, Buerocomputer (A5120/30 u. ae.)	MACRO-80 V3.50	25-Oct-85	Page	1-124


  04C6    21 004F        C      	ld	hl,bssp2-1
  04C9    22 D4CA        C      	ld	(crtm07),hl
  04CC    7D             C      	ld	a,l
  04CD    32 D540        C      	ld	(crtm11),a
  04D0    23             C      	inc	hl
  04D1    22 D515        C      	ld	(crtm10),hl
  04D4    22 D54A        C      	ld	(crtm12),hl
  04D7    22 D563        C      	ld	(crtm15),hl
                         C       IF stpvar
                         C        IF chdvar
  04DA    7D             C      	ld	a,l
  04DB    32 D623        C      	ld	(crtm24),a
  04DE    3E 19          C      	ld	a,bszl2+1
  04E0    32 D61F        C      	ld	(crtm23),a
                         C        ENDIF
                         C       ENDIF
  04E3    3E 17          C      	ld	a,bszl2-1
  04E5    32 D50A        C      	ld	(crtm08),a
  04E8    21 FFB0        C      	ld	hl,0-bssp2
  04EB    22 D592        C      	ld	(crtm21),hl
                         C       IF cpastz
                         C       ELSE
  04EE    21 F682        C      	ld	hl,kbdbuf
                         C       ENDIF
  04F1    22 D22C        C      	ld	(crtm32),hl
  04F4    22 D21F        C      	ld	(crtm33),hl
  04F7    22 D1C3        C      	ld	(crtm35),hl
  04FA    22 051E        C      	ld	(crtm43),hl
                         C       IF stpvar or monitor
  04FD    22 D196        C      	ld	(crtm36),hl
                         C       ENDIF
  0500    23             C      	inc	hl
  0501    22 D223        C      	ld	(crtm34),hl
                         C       IF	uhrvar
                         C        IF cpastz
                         C        ELSE
  0504    21 F848        C      	ld	hl,bsanf2+bssp2-8
                         C        ENDIF
  0507    22 E544        C      	ld	(bsuhr),hl		;;Stelle fuer Uhrzeit
                         C       ENDIF
                         C      
  050A                   C      bsbabi:
                         C      
                         C       IF cpastz
                         C       ENDIF	;cpastz
                         C      
  050A    0E 0C          C      	ld	c,0ch
  050C    CD D454        C      	call	crto		;;Bildschirmpuffer loeschen
                         C      
  050F    3E 01          C      	ld	a,1
  0511    D3 40          C      	out	(40h),a		;;BAB3: Kursor blinkend
  0513    3E 03          C      	ld	a,3
  0515    D3 40          C      	OUT	(40h),A		;;BAB3: 1920 Zeichen
                         C      
  0517    0E 84          C      	ld	c,bsinic	;;Grundzustand Bildschirm
  0519    CD D454        C      	call	crto		;;einstellen
                         C      
                         C      	include BIOSKBDC
                         C      ; Kaltstart-Initialisierung Tastatur
                         C      ;===================================
                         C      ;14.07.88:
                         C      ; - Einbau Typcode 80h fuer K7634.54 (meldet sich wie K7636, ist aber anders!)
BIOS CP/A, Buerocomputer (A5120/30 u. ae.)	MACRO-80 V3.50	25-Oct-85	Page	1-125


                         C      ; 07.11.88
                         C      ; - Erweiterung um K7634-spezifische Tasten
                         C      ;14.01.89
                         C      ; - Einbau K7633
                         C      ;16.02.89
                         C      ; - Ueberwachung der Tabellenlaenge zur Modifizierung der Tastaturcodes
                         C      ;22.03.89
                         C      ; - INSLINE -> spcins  bei K7634 in Umkodierungstabelle aufgenommen
                         C      ; - bei K7633 war KORR und ABBR vertauscht
                         C      ;07.08.89
                         C      ; - Fehlerkorrektur K7637: CTRL-Ersatztaste brachte kein ^Q-Prefix
                         C      
  051C    AF             C      	xor	a
  051D    32 FFFF        C      	ld	(0ffffh),a	;;Tastaturpuffer leeren
  051E                   C      crtm43	equ	$-2
                         C      
                         C       IF costu
                         C       ENDIF
                         C      
                         C      ;;automatische Tastaturerkennung
                         C      ;;~~~~~~~~~~~~~~~~~~~~~~~~~~~~~~
                         C       IF kbdpin
                         C       ENDIF
  0520    06 03          C       	ld	b,3
  0522    11 0400        C      ciini1:	ld	de,400h
  0525    1B             C      ciini2:	dec	de
  0526    DB 06          C      	in	a,(kbdpci)	;;ueberlesen Tastaturzeichen
  0528    7A             C      	ld	a,d
  0529    B3             C      	or	e
  052A    20 F9          C      	jr	nz,ciini2
  052C    10 F4          C      	djnz	ciini1
                         C      
  052E    DB 01          C      	in	a,(kbdpcs)	;;Status einer leeren Tastatur
  0530    E6 08          C      	and	8		;;ist Taste gedrueckt?
  0532    20 06          C      	jr	nz,ciini3	;;nein
  0534    32 063B        C      	ld	(coistc),a	;;sonst cpl -> nop
  0537    32 D235        C      	ld	(kbdstc),a
  053A                   C      ciini3:
                         C      
  053A                   C      ciisrt:		;;Eingang fuer Wiederholen Tastatur-Abfrage
  053A    AF             C      	xor	a
  053B    D3 03          C      	out	(kbdp3o),a	;;ruecksetzen K7634/36
                         C       IF kbdotp eq 3
                         C       ENDIF
  053D    ED 4B 063D     C      	ld	bc,(kbdsmt)
  0541    06 05          C      	ld	b,00000101b	;;di/zeitg/vt16/neg.fl/strt/zk
  0543    ED 41          C      	out	(c),b		;;Zeitgeber fuer IFSS-Tastatur
  0545    06 01          C      	ld	b,1		;;Zeitkonstante 9600bd
  0547    ED 41          C      	out	(c),b
  0549    ED 4B 063F     C      	ld	bc,(kbdsms)
  054D    06 0A          C      	ld	b,k37prl	;;ruecksetzen K7637
  054F    21 0641        C      	ld	hl,k37par
  0552    ED B3          C      	otir			;;SIO initialisieren
  0554    ED 4B 063E     C      	ld	bc,(kbdsmi)
  0558    AF             C      	xor	a		;;reset an Tastatur
  0559    ED 79          C      	out	(c),a
                         C      ;; Bediensicherung nach RESET wird als unzulaessiges Zeichen
                         C      ;; bei der normalen Tastatureingabe ignoriert
  055B    21 064B        C      	ld	hl,kmodif	;;Standard-Ausgang
  055E    E5             C      	push	hl		;;als Return-Adresse
  055F    11 0600        C      	ld	de,6*256+0	;;Warten auf Typ-Code K7634/36/37
  0562    CD 0639        C      coityp:	call	coistp
BIOS CP/A, Buerocomputer (A5120/30 u. ae.)	MACRO-80 V3.50	25-Oct-85	Page	1-126


  0565    CB 5F          C      	bit	3,a		;;Zeichen da?
  0567    28 2A          C      	jr	z,coitn1	;;nein
  0569    CB 57          C      	bit	2,a		;;CNTL-Status ohne gedrueckte CNTL-Taste?
  056B    28 05          C      	jr	z,coicnp	;;nein
  056D    3E 18          C      	ld	a,18h		;;sonst jr-Befehl,
  056F    32 D23F        C      	ld	(kbdstm),a	;;zum Ignorieren des CNTL-Status
  0572    DB 06          C      coicnp:	in	a,(kbdpci)
  0574    E6 F0          C      	and	0f0h
  0576    FE 10          C      	cp	typc3s		;;Typ-Code Sondertastatur
  0578    21 06BC        C      	ld	hl,km3s
  057B    C8             C      	ret	z		;;ja
  057C    FE A0          C      	cp	typc34		;;Typ-Code K7634?
  057E    20 0D          C      	jr	nz,coin34	;;nein
  0580    CD 0639        C      	call	coistp		;;ctrl-Taste vorhanden?
  0583    CB 57          C      	bit	2,a
  0585    21 0692        C      	ld	hl,km3458
  0588    C8             C      	ret	z		;;ja, nicht K7634.54
  0589    21 0676        C      	ld	hl,km3454
  058C    C9             C      	ret
                         C      ;;;Typcode 80h
  058D    FE 80          C      coin34:	cp	80h		;;Typcode 80h?
                         C       if typ80 eq 3454
                         C       else
  058F    21 06AE        C      	ld	hl,km36		;;  Modifizierung fuer K7636
                         C      endif
  0592    C8             C      	ret	z		;;ja
                         C      ;;;Ende Typcode 80h
                         C      
  0593    ED 4B 063F     C      coitn1:	ld	bc,(kbdsms)
  0597    ED 78          C      	in	a,(c)
  0599    CB 47          C      	bit	0,a		;;Zeichen da?
  059B    28 31          C      	jr	z,coitn2	;;nein
  059D    ED 4B 063E     C      	ld	bc,(kbdsmi)
  05A1    ED 78          C      	in	a,(c)
  05A3    E6 F0          C      	and	0f0h
  05A5    FE 80          C      	cp	typc37
  05A7    21 0668        C      	ld	hl,km37
  05AA    20 22          C      	jr	nz,coitn2	;;nicht Typcode K7637
  05AC    3A 063F        C      	ld	a,(kbdsms)	;;Portadressen aendern
  05AF    32 075D        C      	ld	(k37dm1),a
  05B2    3A 063E        C      	ld	a,(kbdsmi)
  05B5    32 06CB        C      	ld	(k37dm2),a
  05B8    32 D2C4        C      	ld	(k37dm3),a
  05BB    32 D2D7        C      	ld	(k37dm4),a
  05BE    32 D2E3        C      	ld	(k37dm5),a
  05C1    32 D2EF        C      	ld	(k37dm6),a
  05C4    32 D30C        C      	ld	(k37dm7),a
  05C7    32 D313        C      	ld	(k37dm8),a
  05CA    21 0668        C      	ld	hl,km37
  05CD    C9             C      	ret			;;K7637
  05CE                   C      coitn2:
  05CE    1D             C      	dec	e
  05CF    20 91          C      	jr	nz,coityp
  05D1    15             C      	dec	d
  05D2    20 8E          C      	jr	nz,coityp	;;verhindern unendl.Schleife
                         C      ;;				 fuer Tastaturen ohne Typcode
  05D4    21 0640        C       	ld	hl,kbdsnr	;;laufende SIO-Tastatur-Nr
  05D7    7E             C      	ld	a,(hl)
  05D8    34             C       	inc	(hl)		;;+1
                         C       if kbds2i+kbds2s+kbds2t
  05D9    FE 02          C      	cp	2		;;war schon 2?
  05DB    30 13          C      	jr	nc,coits2	;;ja
BIOS CP/A, Buerocomputer (A5120/30 u. ae.)	MACRO-80 V3.50	25-Oct-85	Page	1-127


  05DD    3E 52          C      	ld	a,kbds2i
  05DF    32 063E        C      	ld	(kbdsmi),a
  05E2    3E 53          C      	ld	a,kbds2s
  05E4    32 063F        C      	ld	(kbdsms),a
  05E7    3E 59          C      	ld	a,kbds2t
  05E9    32 063D        C      	ld	(kbdsmt),a
  05EC    E1             C      	pop	hl		;;return-Adresse vergessen
  05ED    C3 053A        C      	jp	ciisrt	
  05F0                   C      coits2:
                         C       endif
                         C       if kbds3i+kbds3s+kbds3t
  05F0    FE 03          C      	cp	3		;;war schon 3?
  05F2    30 13          C      	jr	nc,coits3	;;ja
  05F4    3E 52          C      	ld	a,kbds3i
  05F6    32 063E        C      	ld	(kbdsmi),a
  05F9    3E 53          C      	ld	a,kbds3s
  05FB    32 063F        C      	ld	(kbdsms),a
  05FE    3E 5A          C      	ld	a,kbds3t
  0600    32 063D        C      	ld	(kbdsmt),a
  0603    E1             C      	pop	hl		;;return-Adresse vergessen
  0604    C3 053A        C      	jp	ciisrt	
  0607                   C      coits3:
                         C       endif
                         C       if kbds4i+kbds4s+kbds4t
  0607    FE 04          C      	cp	4		;;war schon 4?
  0609    30 13          C      	jr	nc,coits4	;;ja
  060B    3E 52          C      	ld	a,kbds4i
  060D    32 063E        C      	ld	(kbdsmi),a
  0610    3E 53          C      	ld	a,kbds4s
  0612    32 063F        C      	ld	(kbdsms),a
  0615    3E 0C          C      	ld	a,kbds4t
  0617    32 063D        C      	ld	(kbdsmt),a
  061A    E1             C      	pop	hl		;;return-Adresse vergessen
  061B    C3 053A        C      	jp	ciisrt	
  061E                   C      coits4:
                         C       endif
                         C       if kbds5i+kbds5s+kbds5t
  061E    FE 05          C      	cp	5		;;war schon 5?
  0620    30 13          C      	jr	nc,coits5	;;ja
  0622    3E 4E          C      	ld	a,kbds5i
  0624    32 063E        C      	ld	(kbdsmi),a
  0627    3E 4F          C      	ld	a,kbds5s
  0629    32 063F        C      	ld	(kbdsms),a
  062C    3E 4A          C      	ld	a,kbds5t
  062E    32 063D        C      	ld	(kbdsmt),a
  0631    E1             C      	pop	hl		;;return-Adresse vergessen
  0632    C3 053A        C      	jp	ciisrt	
  0635                   C      coits5:
                         C       endif
                         C       IF kbdotp eq 0	;;K7606 annehmen
  0635    21 06A0        C      	ld	hl,km06
                         C       ENDIF
                         C       IF kbdotp eq 1	;;K7604 annehmen
                         C       ENDIF
                         C       IF kbdotp eq 2	;;DEG-Tastatur annehmen
                         C       ENDIF
                         C       IF kbdotp eq 3	;;K7633 annehmen
                         C       ENDIF
  0638    C9             C      	ret
                         C      
                         C      ;;Lesen Statusregister fuer PIO-Tastatur
                         C      ; Bit 3	=1, wenn Taste gedrueckt
BIOS CP/A, Buerocomputer (A5120/30 u. ae.)	MACRO-80 V3.50	25-Oct-85	Page	1-128


                         C      ; Bit 2	=1, wenn CNTL-Taste gedrueckt
  0639    DB 01          C      coistp:	in	a,(kbdpcs)
  063B    2F             C      coistc:	cpl			;;auf NOP, wenn Status negiert
  063C    C9             C      	ret
                         C      
                         C      ;; Initialisierung Tastatur K7637
  063D    58             C      kbdsmt:	db	kbdsct	;;CTC
  063E    5C             C      kbdsmi:	db	kbdsci	;;Zeichen E/A
  063F    5D             C      kbdsms:	db	kbdscs	;;Status
  0640    01             C      kbdsnr:	db	1	;;Laufende Nr. fuer Tastaturvarianten
  0641    00 18          C      k37par:	db	0,18h	;;Kanal-Reset
  0643    04 44          C      	db	4,44h	;;clock*16  / 1 stoppbit / unger. Par.
  0645    01 00          C      	db	1,0
  0647    05 68          C      	db	5,68h	;;Send. ein / 8 bit pro Zeichen
  0649    03 C1          C      	db	3,0c1h	;;Empf. ein / 8 bit pro Zeichen
  000A                   C      k37prl	equ	$-k37par
                         C      
                         C      
                         C      ;; Tastatur-Modifizierung gemaess Steuertabelle ab (HL)
                         C      
  064B                   C      kmodif:
  064B    11 0B19        C      	ld	de,kbdtyp
  064E    01 0002        C      	ld	bc,2
  0651    ED B0          C      	ldir
  0653    06 06          C      	ld	b,kmodl		;;Anzahl der Adressen
  0655    C5             C      kmodi1:	push	bc
  0656    5E             C      	ld	e,(hl)
  0657    23             C      	inc	hl
  0658    56             C      	ld	d,(hl)
  0659    23             C      	inc	hl
  065A    E5             C      	push	hl
  065B    21 0661        C      	ld	hl,kmodi2
  065E    E5             C      	push	hl		;;ret-Adr.
  065F    D5             C      	push	de		;;Modif.routine
  0660    C9             C      coidum:	ret			;;abarbeiten
  0661    E1             C      kmodi2:	pop	hl
  0662    C1             C      	pop	bc
  0663    10 F0          C      	djnz	kmodi1
                         C      ;; Ende Kaltstart-Modifizierungen
  0665    C3 0948        C      	jp	coinie
                         C      
                         C      
                         C      ;;Steuertabellen fuer Modifizierung
                         C      ;;==================================
                         C      
                         C      ;; dw coidum, wenn keine Modifizierung
                         C      
                         C      ;; k7637 -Tastatur
                         C      ;;----------------
                         C      
  0668    33 37          C      km37:	db	'37'
  066A    06CA           C      kmodt:	dw	coi37p		;;Port-Modifizierung
  066C    06DF           C      	dw	coi37t		;;Tastenumkodierung
  066E    06F7           C      	dw	coi37c		;;kbdst1-Modifizierung
  0670    0703           C      	dw	coi37w		;;kbdwin-Modifizierung
  0672    0660           C      	dw	coidum		;;lampen-Modifizierung
  0674    0660           C      	dw	coidum		;;gross <-> klein vertauschen
  0006                   C      kmodl	equ	($-kmodt)/2	;;Anzahl der Adressen
                         C      
                         C      ;; k76x4 -Tastaturen
                         C      ;;------------------
                         C      
BIOS CP/A, Buerocomputer (A5120/30 u. ae.)	MACRO-80 V3.50	25-Oct-85	Page	1-129


                         C       IF kbdotp eq 1
                         C       ENDIF
                         C      
  0676    33 34          C      km3454:	db	'34'
  0678    0660           C      	dw	coidum
  067A    06D0           C      	dw	coi344
  067C    0660           C      	dw	coidum
  067E    0703           C      	dw	coi34w
  0680    071A           C      	dw	coi34l
  0682    074C           C      	dw	coicps
                         C      
                         C      ;;;Typcode 80h
  0684    33 34          C      km8454:	db	'34'
  0686    0660           C      	dw	coidum
  0688    06D5           C      	dw	coi834		;bis auf wenige Tasten wie K7636
  068A    0660           C      	dw	coidum
  068C    0703           C      	dw	coi34w
  068E    0726           C      	dw	coi84l		;warten auf Typcode 80h, sonst wie K7634
  0690    074C           C      	dw	coicps
                         C      ;;;Ende Typcode 80h
                         C      
  0692    33 34          C      km3458:	db	'34'
  0694    0660           C      	dw	coidum
  0696    06DA           C      	dw	coi348
  0698    0660           C      	dw	coidum
  069A    0703           C      	dw	coi34w
  069C    071A           C      	dw	coi34l
  069E    074C           C      	dw	coicps
                         C      
                         C      ;; k76x6 -Tastaturen
                         C      ;;------------------
                         C      
                         C       IF kbdotp eq 0
  06A0    30 36          C      km06:	db	'06'
  06A2    0660           C      	dw	coidum
  06A4    0660           C      	dw	coidum
  06A6    0660           C      	dw	coidum
  06A8    0660           C      	dw	coidum
  06AA    072D           C      	dw	coi06l
  06AC    0660           C      	dw	coidum
                         C       ENDIF
                         C      
  06AE    33 36          C      km36:	db	'36'
  06B0    0660           C      	dw	coidum
  06B2    0660           C      	dw	coidum
  06B4    0660           C      	dw	coidum
  06B6    0703           C      	dw	coi36w
  06B8    0739           C      	dw	coi36l
  06BA    0660           C      	dw	coidum
                         C      
                         C      ;; Sondertastatur (modifizierte K7634)
                         C      ;;---------------
  06BC    3F 53          C      km3s:	db	'?S'
  06BE    0660           C      	dw	coidum		;;Portmodif.
  06C0    06EB           C      	dw	coi3st		;;Tastenumkodierung
  06C2    0660           C      	dw	coidum		;;kbdst1-Modif.
  06C4    0703           C      	dw	coi3sw		;;kbdwin-Modif.
  06C6    0745           C      	dw	coi3sl		;;lampen-Modif.
  06C8    0660           C      	dw	coidum		;;klein <-> gross
                         C      
                         C       IF kbdotp eq 2
                         C       ENDIF
BIOS CP/A, Buerocomputer (A5120/30 u. ae.)	MACRO-80 V3.50	25-Oct-85	Page	1-130


                         C       IF kbdotp eq 3
                         C       ENDIF
                         C      
                         C      
                         C      ;; Modifizierungs-Unterprogramme
                         C      ;;==============================
                         C      
                         C      ;;Portmodifizierung
                         C      ;;-----------------
  06CA    3E 5C          C      coi37p:	ld	a,kbdsci
  06CB                   C      k37dm2	equ	$-1		;;modifiziert bei Digitalisier-AP
  06CC    32 D26D        C      	ld	(kbdmt1),a
  06CF    C9             C      	ret
                         C       IF kbdotp eq 3
                         C       ENDIF
                         C      
                         C      ;;Codemodif.
                         C      ;;----------
                         C       IF kbdotp eq 1
                         C       ENDIF
  06D0    21 07F8        C      coi344:	ld	hl,cp3454
  06D3    18 0D          C      	jr	coicpt
                         C      
                         C      ;;;Typcode 80h
  06D5    21 08A2        C      coi834:	ld	hl,cp8454
  06D8    18 08          C      	jr	coicpt
                         C      ;;;Ende Typcode 80h
                         C      
  06DA    21 084D        C      coi348:	ld	hl,cp3458
  06DD    18 03          C      	jr	coicpt
                         C      
  06DF    21 08E9        C      coi37t:	ld	hl,cp37
  06E2    11 D31C        C      coicpt:	ld	de,kbdcpt
  06E5    01 0065        C      	ld	bc,kbdcpl
  06E8    ED B0          C      	ldir			;;Umkodierungstabelle setzen
  06EA    C9             C      	ret
                         C      
  06EB    21 0752        C      coi3st:	ld	hl,cocp3s	;;Umkodierung ignorieren
  06EE    11 D26E        C      	ld	de,cocpm1
  06F1    01 0002        C      	ld	bc,coc3se-cocp3s
  06F4    ED B0          C      	ldir
  06F6    C9             C      	ret
                         C      
                         C       IF kbdotp eq 2
                         C       ENDIF
                         C       IF kbdotp eq 3
                         C       ENDIF
                         C      
                         C      ;;kbdst1-Modif.
                         C      ;;-------------
  06F7    21 075C        C      coi37c:	ld	hl,cst37
  06FA    11 D233        C      	ld	de,kbdst1
  06FD    01 0016        C      	ld	bc,cst37e-cst37
  0700    ED B0          C      	ldir
  0702    C9             C      	ret
                         C       IF kbdotp eq 3
                         C       ENDIF
                         C      
                         C      ;;kbdwin-Modif.
                         C      ;;-------------
  0703                   C      coi3sw:
  0703                   C      coi04w:
BIOS CP/A, Buerocomputer (A5120/30 u. ae.)	MACRO-80 V3.50	25-Oct-85	Page	1-131


  0703                   C      coi34w:
  0703                   C      coi36w:
  0703                   C      coi37w:
                         C       IF kbdotp eq 3
                         C       ENDIF
  0703    21 0754        C      	ld	hl,cwi34
  0706    11 D1E7        C      	ld	de,kbdmd1
  0709    01 0008        C      	ld	bc,cwi34e-cwi34
  070C    ED B0          C      	ldir
  070E    C9             C      	ret
                         C      
                         C      ;;lampen-Modif.
                         C      ;;-------------
  070F    21 07BF        C      coi04l:	ld	hl,lmp04
  0712    11 07A6        C      	ld	de,lmp3404	;;lmp34 modif. ohne Warten
  0715    01 0002        C      	ld	bc,lmp04e-lmp04
  0718    ED B0          C      	ldir
  071A    21 0788        C      coi34l:	ld	hl,lmp34
  071D    11 D2B0        C      	ld	de,kbdmd2
  0720    01 0037        C      	ld	bc,lmp34e-lmp34
  0723    ED B0          C      	ldir
  0725    C9             C      	ret
                         C      
                         C      ;;;Typcode 80h
  0726    21 07B0        C      coi84l:	ld	hl,lmp34c
  0729    36 80          C      	ld	(hl),80h	;;Typecode modif.
  072B    18 ED          C      	jr	coi34l
                         C      ;;;Ende Typcode 80h
                         C      
                         C       IF kbdotp eq 0
  072D    21 0772        C      coi06l:	ld	hl,lmp06
  0730    11 D2B0        C      	ld	de,kbdmd2
  0733    01 0016        C      	ld	bc,lmp06e-lmp06
  0736    ED B0          C      	ldir
  0738    C9             C      	ret
                         C       ENDIF
                         C      
                         C       IF kbdotp eq 2
                         C       ENDIF
                         C      
  0739    21 07C1        C      coi36l:	ld	hl,lmp36
  073C    11 D2B0        C      	ld	de,kbdmd2
  073F    01 0037        C      	ld	bc,lmp36e-lmp36
  0742    ED B0          C      	ldir
  0744    C9             C      	ret	
                         C      
  0745    21 07B0        C      coi3sl:	ld	hl,lmp34c
  0748    36 10          C      	ld	(hl),typc3s	;;Typecode modif.
  074A    18 CE          C      	jr	coi34l
                         C      
                         C       IF kbdotp eq 3
                         C       ENDIF
                         C      
                         C      ;;Gross <-> klein modif. bei Tastaturen, die nach RESET Grossb. liefern
                         C      ;;----------------------
  074C    3E C0          C      coicps:	ld	a,0c0h		;ret nz
  074E    32 D25B        C      	ld	(kbdmd3),a	;statt ret z
  0751    C9             C      	ret
                         C      
                         C      
                         C      ;; Modifizierungs-Muster
                         C      ;;======================
BIOS CP/A, Buerocomputer (A5120/30 u. ae.)	MACRO-80 V3.50	25-Oct-85	Page	1-132


                         C      
                         C      ;; Tastatur-Code modif.
                         C      ;;--------------------
  0752    18 12          C      cocp3s:	jr	$+cocpm2-cocpm1
  0754                   C      coc3se:
                         C      
                         C      ;; kbdwin
                         C      ;;-------
  0754                   C      cwi34:		;;Modifizierungsroutine fuer K7634/36/37
                         C      ;;kbdwin:
  0754    CD D14F        C      	call	kbdst		;;Taste gedrueckt?
  0757    28 FB          C      	jr	z,cwi34		;;nein
  0759    C3 D21E        C      	jp	kbdinn		;;sonst auswerten
                         C      
  075C                   C      cwi34e:
                         C      
                         C      ;; kbdst1
                         C      ;;-------
                         C      ;; Modifizierungsroutine fuer K7637
  075C                   C      cst37:
                         C      ;;kbdst1:
  075C    DB 5D          C      	in	a,(kbdscs)	;;Taste gedrueckt?
  075D                   C      k37dm1	equ	$-1		;;modifiziert bei Digitalisier-AP
  075E    E6 01          C      	and	1
  0760    C8             C      	ret	z		;(a)=0, z=1
  0761    21 D03D        C      	ld	hl,synflg
  0764    CB 46          C      	bit	ctrlst,(hl)	;Ersatz-CNTL?
  0766    3E FF          C      	ld	a,0ffh		;Schnittmaske c0..ff -> c0..ff
  0768    28 02          C      	jr	z,cst37b	;nein
  076A    3E BF          C      	ld	a,0bfh		;Schnittmaske c0..ff -> 80..bf
  076C    32 D28E        C      cst37b:	ld	(kbdlcs),a
  076F    AF             C      	xor	a
  0770    3D             C      	dec	a		;(a)=ff, z=0
  0771    C9             C      	ret
  0772                   C      cst37e:
                         C      
                         C       IF kbdotp eq 3
                         C       ENDIF
                         C      
                         C      ;; lampen
                         C      ;;-------
                         C       IF kbdotp eq 0
  0772                   C      lmp06:		;;Modifizierungsroutine fuer K7606
                         C      ;;lampen:
  0772    3E 03          C      	ld	a,3
  0774    D3 03          C      	out	(kbdp3o),a	;;lampen aus
  0776    3A 0040        C      	ld	a,(lampbf)	;;puffer lampenbits
  0779    F5             C      	push	af
  077A    07             C      	rlca
  077B    07             C      	rlca
  077C    E6 03          C      	and	3
  077E    EE 0B          C      	xor	8+3		;;0 bedeutet ein
  0780    D3 03          C      	out	(kbdp3o),a
  0782    F1             C      	pop	af		;;selectorlampem
  0783    EE 0F          C      	xor	0fh		;;0 bedeutet ein
  0785    D3 05          C      	out	(kbdp5o),a
  0787    C9             C      	ret
  0788                   C      lmp06e:
                         C       ENDIF
                         C      
  0788                   C      lmp34:		;;Modifizierungsroutine fuer K7604/K7634
                         C      ;;lampen:
BIOS CP/A, Buerocomputer (A5120/30 u. ae.)	MACRO-80 V3.50	25-Oct-85	Page	1-133


  0788    3A 0040        C      	ld	a,(lampbf)
  078B    FE 00          C      	cp	00h		;;veraendert?
  078C                   C      lmpb34	equ	$-1		;;Kopie Lampen-Puffer
  078D    C8             C      	ret	z		;;unveraendert
  078E    21 E4F0        C      	ld	hl,intkbd
  0791    36 21          C      	ld	(hl),21h	;;ld hl,...
  0793    E6 C0          C      	and	0c0h		;;Sel 0..3 LED gibt es nicht
  0795    CB 7F          C      	bit	7,a		;;INS-MODE ?
  0797    28 02          C      	jr	z,lmp34a	;;aus
  0799    CB E7          C      	set	4,a
  079B    CB 77          C      lmp34a:	bit	6,a		;;Fehlerlampe ?
  079D    28 02          C      	jr	z,lmp34b	;;aus
  079F    F6 24          C      	or	00100100b	;;sonst zusaetzlich OFF-LED
  07A1    2F             C      lmp34b:	cpl			;;0 bedeutet ein
  07A2    CB FF          C      	set	7,a		;;Flag LED-Aenderung
  07A4    D3 03          C      	out	(kbdp3o),a
  07A6                   C      lmp3404:
  07A6    CD D233        C      lmp34w:	call	kbdst1		;;warten auf Antwort
  07A9    28 FB          C      	jr	z,lmp34w
  07AB    DB 06          C      	in	a,(kbdpci)
  07AD    E6 F0          C      	and	0f0h
  07AF    FE A0          C      	cp	typc34
  07B0                   C      lmp34c	equ	$-1		;;fuer evtl. Typecode-Modif.
  07B1    20 F3          C      	jr	nz,lmp34w
  07B3    3A 0040        C      lmp04w:	ld	a,(lampbf)
  07B6    32 D2B4        C      	ld	(lampen+lmpb34-lmp34),a
  07B9    21 E4F0        C      	ld	hl,intkbd
  07BC    36 CC          C      	ld	(hl),0cch
  07BE    C9             C      	ret
  07BF                   C      lmp34e	equ	$
                         C      
  07BF                   C      lmp04:		;;Modifizierungsroutine fuer K7604
  07BF    18 0B          C      	jr	$+(lmp04w-lmp3404);;nicht auf Antwort warten
  07C1                   C      lmp04e	equ	$
                         C      
  07C1                   C      lmp36:		;;Modifizierungsroutine fuer K7636
                         C      ;;lampen:
  07C1    3A 0040        C      	ld	a,(lampbf)
  07C4    FE 00          C      	cp	00h		;;veraendert?
  07C5                   C      lmpb36	equ	$-1		;;Kopie Lampen-Puffer
  07C6    C8             C      	ret	z		;;unveraendert
  07C7    21 E4F0        C      	ld	hl,intkbd	;parall. 5ms Portabfrage verhindern
  07CA    36 21          C      	ld	(hl),21h	;call ... -> ld hl,...
  07CC    E6 CF          C      	and	0cfh		;;loeschen unbenutzte Bits
  07CE    CB 7F          C      	bit	7,a		;;INS-MODE ?
  07D0    28 02          C      	jr	z,lmp36a	;;aus
  07D2    CB E7          C      	set	4,a
  07D4    CB 77          C      lmp36a:	bit	6,a		;;Fehlerlampe ?
  07D6    28 02          C      	jr	z,lmp36b	;;aus
  07D8    CB EF          C      	set	5,a		;;sonst zusaetzlich 'PIEP'
  07DA    2F             C      lmp36b:	cpl			;;0 bedeutet ein
  07DB    CB FF          C      	set	7,a		;;Flag LED-Aenderung
  07DD    D3 03          C      	out	(kbdp3o),a
  07DF                   C      lmpdg06:
  07DF    CD D233        C      lmp36w:	call	kbdst1		;;warten auf Antwort
  07E2    28 FB          C      	jr	z,lmp36w
  07E4    DB 06          C      	in	a,(kbdpci)
  07E6    E6 F0          C      	and	0f0h
  07E8    FE 80          C      	cp	80h		;Typcode
  07EA    20 F3          C      	jr	nz,lmp36w
  07EC    3A 0040        C      lmpdgw:	ld	a,(lampbf)
  07EF    32 D2B4        C      	ld	(lampen+lmpb36-lmp36),a
BIOS CP/A, Buerocomputer (A5120/30 u. ae.)	MACRO-80 V3.50	25-Oct-85	Page	1-134


  07F2    21 E4F0        C      	ld	hl,intkbd
  07F5    36 CC          C      	ld	(hl),0cch	;;wieder call ...
  07F7    C9             C      	ret
  07F8                   C      lmp36e	equ	$
                         C      
                         C       IF kbdotp eq 2
                         C       ENDIF
                         C      
                         C       IF kbdotp eq 3
                         C       ENDIF
                         C      
                         C      ;; Tabelle physikalische -> virt. Tastencodes
                         C      ;; ##########################################
                         C      
                         C      ;; K76x4.54 (ohne Controltaste)
                         C      ;;=========
  07F8                   C      cp0454:
  07F8                   C      cp3454:
                         C      ; Kursortasten
                         C      ;-------------
  07F8    0B C1          C      	db	00BH,kcurwl		;|<-
  07FA    04 C2          C      	db	004H,kcurup		;^
  07FC    01 C3          C      	DB	001H,kcurwr		;->|
  07FE    06 C4          C      	db	006H,kcurlf		;<-
  0800    1E C5          C      	db	01eh,kcurpu		;FM als Ersatz '\
  0802    07 C6          C      	db	007H,kcurri		;->
  0804    0A C7          C      	db	00AH,kcurpd		;<-'
  0806    05 C8          C      	db	005H,kcurdw		;v
                         C      ; Sondertasten
                         C      ;-------------
  0808    9D 0D          C      	db	09dh,0dh		;ENTR
  080A    0F 09          C      	db	00FH,009h		;|<-| als Ersatz Tab
  080C    13 1B          C      	db	013H,01bh		;DEL LINE als Ersatz ESC
  080E    1B C0          C      	db	01BH,spcdel		;DEL
  0810    03 CD          C      	db	003H,spcins		;INSL
  0812    1C D1          C      	db	01cH,Sel0		;DUP
  0814    1F DF          C      	db	01fh,ctlc		;RESET als Ersatz Control-Taste
  0816    09 CC          C      	db	009h,spcce		;ERIN als Ersatz CE
  0818    8D CA          C      	db	08dh,spcclr		;CLEAR
  081A    8F CB          C      	db	08fh,spccnc		;CNCL
  081C    82 CE          C      	db	082h,spckor		;KOR
  081E    83 CF          C      	db	083h,spcrol		;ROLL <-
  0820    84 D0          C      	db	084h,spcror		;ROLL ->
                         C      ; num. Tasten
                         C      ;------------
  0822    12 DD          C      	db	012H,zbl000		;Dzif
  0824    02 FB          C      	db	002h,zblmin		;INS MODE als Ersatz num. Minus
  0826    86 FC          C      	db	086h,zbla		;Taste ueber der "7"
  0828    85 C9          C      	db	085h,zblb		;Taste ueber der "8"
  082A    87 FE          C      	db	087h,zblc		;Taste ueber der "9"
                         C      ; Funktionstasten
                         C      ;----------------
  082C    11 E0          C      	db	011h,pf0c		;REC
  082E    91 E1          C      	db	091h,pf1c		;PF1
  0830    92 E2          C      	db	092h,pf2c		;PF2
  0832    93 E3          C      	db	093h,pf3c		;PF3
  0834    94 E4          C      	db	094h,pf4c		;PF4
  0836    95 E5          C      	db	095h,pf5c		;PF5
  0838    96 E6          C      	db	096h,pf6c		;PF6
  083A    97 E7          C      	db	097h,pf7c		;PF7
  083C    98 E8          C      	db	098h,pf8c		;PF8
  083E    99 E9          C      	db	099h,pf9c		;PF9
BIOS CP/A, Buerocomputer (A5120/30 u. ae.)	MACRO-80 V3.50	25-Oct-85	Page	1-135


  0840    9A EA          C      	db	09ah,pfac		;PF10
  0842    9B EB          C      	db	09bh,pfbc		;PF11
  0844    9C EC          C      	db	09ch,pfcc		;PF12
  0846    81 ED          C      	db	081h,pfdc		;VLD als Ersatz PF13
  0848    08 EE          C      	db	008H,pfec		;EREO als Ersatz PF14 (Monitor)
  084A    10 EF          C      	db	010h,pffc		;OFF als Erstatz PF15 (Stop)
  084C    00             C      	db	0			;Tabellenende
                         C       IF1
                         C       ENDIF
                         C      ;----------------------------------------------------------
                         C      
                         C      ;; K76x4.58 (mit Controltaste)
                         C      ;;=========
  084D                   C      cp0458:
  084D                   C      cp3458:
                         C      ; Kursortasten
                         C      ;-------------
  084D    0B C1          C      	db	00BH,kcurwl		;|<-
  084F    04 C2          C      	db	004H,kcurup		;^
  0851    01 C3          C      	DB	001H,kcurwr		;->|
  0853    07 C4          C      	db	007H,kcurlf		;<-
  0855    1E C5          C      	db	01eh,kcurpu		;FM als Ersatz '\
  0857    06 C6          C      	db	006H,kcurri		;->
  0859    0A C7          C      	db	00AH,kcurpd		;<-'
  085B    05 C8          C      	db	005H,kcurdw		;v
                         C      ; Sondertasten
                         C      ;-------------
  085D    9D 0D          C      	db	09dh,0dh		;ENTR
  085F    0F 09          C      	db	00FH,009h		;|<-| als Ersatz Tab
  0861    13 1B          C      	db	013H,01bh		;DEL LINE als Ersatz ESC
  0863    1B C0          C      	db	01BH,spcdel		;DEL
  0865    03 CD          C      	db	003H,spcins		;INSL
  0867    1C D1          C      	db	01cH,Sel0		;DUP
  0869    1F DF          C      	db	01fh,ctlc		;RESET als Ersatz Control-Taste
  086B    09 CC          C      	db	009h,spcce		;ERIN als Ersatz CE
  086D    8D CA          C      	db	08dh,spcclr		;CLEAR
  086F    8F CB          C      	db	08fh,spccnc		;CNCL
  0871    82 CE          C      	db	082h,spckor		;KOR
  0873    83 CF          C      	db	083h,spcrol		;ROLL <-
  0875    84 D0          C      	db	084h,spcror		;ROLL ->
                         C      ; num. Tasten
                         C      ;------------
  0877    12 DD          C      	db	012H,zbl000		;Dzif
  0879    02 FB          C      	db	002h,zblmin		;INS MODE als Ersatz num. Minus
  087B    86 FC          C      	db	086h,zbla		;Taste ueber der "7"
  087D    85 C9          C      	db	085h,zblb		;Taste ueber der "8"
  087F    87 FE          C      	db	087h,zblc		;Taste ueber der "9"
                         C      ; Funktionstasten
                         C      ;----------------
  0881    11 E0          C      	db	011h,pf0c		;REC
  0883    91 E1          C      	db	091h,pf1c		;PF1
  0885    92 E2          C      	db	092h,pf2c		;PF2
  0887    93 E3          C      	db	093h,pf3c		;PF3
  0889    94 E4          C      	db	094h,pf4c		;PF4
  088B    95 E5          C      	db	095h,pf5c		;PF5
  088D    96 E6          C      	db	096h,pf6c		;PF6
  088F    97 E7          C      	db	097h,pf7c		;PF7
  0891    98 E8          C      	db	098h,pf8c		;PF8
  0893    99 E9          C      	db	099h,pf9c		;PF9
  0895    9A EA          C      	db	09ah,pfac		;PF10
  0897    9B EB          C      	db	09bh,pfbc		;PF11
  0899    9C EC          C      	db	09ch,pfcc		;PF12
BIOS CP/A, Buerocomputer (A5120/30 u. ae.)	MACRO-80 V3.50	25-Oct-85	Page	1-136


  089B    81 ED          C      	db	081h,pfdc		;VLD als Ersatz PF13
  089D    08 EE          C      	db	008H,pfec		;EREO als Ersatz PF14 (Monitor)
  089F    10 EF          C      	db	010h,pffc		;OFF als Erstatz PF15 (Stop)
  08A1    00             C      	db	0			;Tabellenende
                         C       IF1
                         C       ENDIF
                         C      ;----------------------------------------------------------
                         C      
                         C      ;;;Typcode 80h
                         C      ;; K7634.54 mit Typcode 80h (UBT-Tastatur)
                         C      ;==========================
  08A2                   C      cp8454:
                         C      ; Kursortasten
                         C      ;-------------
  08A2    0B C1          C      	db	00BH,kcurwl		;|<-
  08A4    04 C2          C      	db	004H,kcurup		;^
  08A6    01 C3          C      	DB	001H,kcurwr		;->|
  08A8    06 C4          C      	db	006H,kcurlf		;<-
  08AA    1E C5          C      	db	01eh,kcurpu		;FM als Ersatz '\
  08AC    07 C6          C      	db	007H,kcurri		;->
  08AE    0A C7          C      	db	00AH,kcurpd		;<-'
  08B0    13 C7          C      	db	013h,kcurpd		;DEL LINE als Ersatz <-'
  08B2    05 C8          C      	db	005H,kcurdw		;v
                         C      ; Sondertasten
                         C      ;-------------
  08B4    FF 0D          C      	db	0ffh,0dh		;ENT als CR
  08B6    0F 09          C      	db	00FH,009h		;|<-| als Ersatz Tab
  08B8    FE 1B          C      	db	0feH,01bh		;CNCL als Ersatz ESC
  08BA    1B C0          C      	db	01BH,spcdel		;DEL
  08BC    09 CC          C      	db	009H,spcce		;ERIN als Ersatz CE	K7604/34
  08BE    03 CD          C      	db	003H,spcins		;INSL
  08C0    1C D1          C      	db	01cH,Sel0		;DUP
  08C2    AF DF          C      	db	0afH,ctlc		;RESET Control-Taste	K7604/34
                         C      ; num. Tasten
                         C      ;------------
  08C4    12 DD          C      	db	012H,zbl000		;Dzif
  08C6    A8 FB          C      	DB	0A8H,zblmin		;INSM als Ersatz num. Minus
                         C      ; Funktionstasten
                         C      ;----------------
  08C8    FD E0          C      	db	0fdh,pf0c		;REC
  08CA    C1 E1          C      	db	0c1h,pf1c		;PF1
  08CC    C2 E2          C      	db	0c2h,pf2c		;PF2
  08CE    C3 E3          C      	db	0c3h,pf3c		;PF3
  08D0    C4 E4          C      	db	0c4h,pf4c		;PF4
  08D2    C5 E5          C      	db	0c5h,pf5c		;PF5
  08D4    C6 E6          C      	db	0c6h,pf6c		;PF6
  08D6    C7 E7          C      	db	0c7h,pf7c		;PF7
  08D8    C8 E8          C      	db	0c8h,pf8c		;PF8
  08DA    C9 E9          C      	db	0c9h,pf9c		;PF9
  08DC    CA EA          C      	db	0cah,pfac		;PF10
  08DE    CB EB          C      	db	0cbh,pfbc		;PF11
  08E0    CC EC          C      	db	0cch,pfcc		;PF12
  08E2    FC ED          C      	db	0fch,pfdc		;CLEAR als Ersatz PF13
  08E4    08 EE          C      	db	008H,pfec		;EREO als Ersatz PF14
  08E6    10 EF          C      	DB	010H,pffc		;OFF als Ersatz PF15
                         C      
  08E8    00             C      	db	0			;Tabellenende
                         C       IF1
                         C       ENDIF
                         C      ;----------------------------------------------------------
                         C      ;;;Ende Typcode 80h
                         C      
BIOS CP/A, Buerocomputer (A5120/30 u. ae.)	MACRO-80 V3.50	25-Oct-85	Page	1-137


                         C      ;; K7637
                         C      ;;======
  08E9                   C      cp37:
                         C      ; Kursortasten
                         C      ;-------------
  08E9    9B C1          C      	db	09BH,kcurwl		;|<-
  08EB    94 C2          C      	db	094H,kcurup		;^
  08ED    91 C3          C      	DB	091H,kcurwr		;->|
  08EF    96 C4          C      	db	096H,kcurlf		;<-
  08F1    9C C5          C      	DB	09CH,kcurpu		;'\
  08F3    97 C6          C      	db	097H,kcurri		;->
  08F5    9A C7          C      	db	09AH,kcurpd		;<-'
  08F7    95 C8          C      	db	095H,kcurdw		;v
                         C      ; Sondertasten
                         C      ;-------------
  08F9    FF 0D          C      	db	0ffh,0dh		;ET1 als CR
  08FB    9F 09          C      	db	09FH,009h		;|<-| als Ersatz Tab
  08FD    B3 1B          C      	db	0b3H,01bh		;DELL als Ersatz ESC
  08FF    BB C0          C      	db	0bBH,spcdel		;DELCH
  0901    B9 CC          C      	db	0b9H,spcce		;CE
  0903    93 CD          C      	db	093H,spcins		;INSL
  0905    A0 D1          C      	DB	0A0H,Sel0		;SEL0
  0907    A1 D2          C      	DB	0A1H,Sel1		;SEL1
  0909    A2 D4          C      	DB	0A2H,Sel2		;SEL2
  090B    A3 D8          C              DB	0A3H,Sel3		;SEL3
  090D    FE DF          C      	db	0feh,ctlc		;ET2 als Control-Taste (Loslassen!)
                         C      ; num. Tasten
                         C      ;------------
  090F    B1 DC          C      	db	0b1H,zbl00		;00
  0911    A8 FB          C      	DB	0A8H,zblmin		;INSMD als Ersatz num. Minus
                         C      ; Funktionstasten
                         C      ;----------------
  0913    C0 E0          C      	db	0c0h,pf0c		;ENTER
  0915    C1 E1          C      	db	0c1h,pf1c		;PF1
  0917    C2 E2          C      	db	0c2h,pf2c		;PF2
  0919    C3 E3          C      	db	0c3h,pf3c		;PF3
  091B    C4 E4          C      	db	0c4h,pf4c		;PF4
  091D    C5 E5          C      	db	0c5h,pf5c		;PF5
  091F    C6 E6          C      	db	0c6h,pf6c		;PF6
  0921    C7 E7          C      	db	0c7h,pf7c		;PF7
  0923    C8 E8          C      	db	0c8h,pf8c		;PF8
  0925    C9 E9          C      	db	0c9h,pf9c		;PF9
  0927    CA EA          C      	db	0cah,pfac		;PF10
  0929    CB EB          C      	db	0cbh,pfbc		;PF11
  092B    CC EC          C      	db	0cch,pfcc		;PF12
  092D    B0 EE          C      	db	0b0H,pfec		;MON als PF14
  092F    AF EF          C      	DB	0AFH,pffc		;RESET als Ersatz PF15
                         C      ; Tasten, die mit Shift oder Control anderen Code liefern
                         C      ;--------------------------------------------------------
  0931    93 BB          C      	db	093h,zblmin-40h		;INSMD	+Shift/Control	= INSL
  0933    B3 80          C      	db	0b3h,spcdel-40h		;DELCH	+Shift/Control	= DELL
  0935    FA A1          C      	db	0fah,pf1c-40h		;PF1	+Shift/Control	= PA1
  0937    F9 A2          C      	db	0f9h,pf2c-40h		;PF2	+Shift/Control	= PA2
  0939    F8 A3          C      	db	0f8h,pf3c-40h		;PF3	+Shift/Control	= PA3
  093B    FC A5          C      	db	0fch,pf5c-40h		;PF5	+Shift/Control	= CLEAR
  093D    FD A6          C      	db	0fdh,pf6c-40h		;PF6	+Shift/Control	= REC
  093F    BE A7          C      	db	0beh,pf7c-40h		;PF7	+Shift/Control	= FM
  0941    BC A8          C      	db	0bch,pf8c-40h		;PF8	+Shift/Control	= DUP
  0943    98 AA          C      	db	098h,pfac-40h		;PF10	+Shift/Control	= EREOF
  0945    99 AB          C      	db	099h,pfbc-40h		;PF11	+Shift/Control	= ERINP
                         C      
  0947    00             C      	db	0			;Tabellenende
BIOS CP/A, Buerocomputer (A5120/30 u. ae.)	MACRO-80 V3.50	25-Oct-85	Page	1-138


                         C      
                         C       IF1
                         C       ENDIF
                         C      ;----------------------------------------------------------
                         C      
                         C      
                         C       IF kbdotp eq 2
                         C       ENDIF
                         C      
                         C       IF kbdotp eq 3
                         C       ENDIF
                         C      
  0948                   C      coinie:
  0948    CD D2B0        C      	call	lampen		;alle Lampen aus
                                
                                ;########################################################
                                ; Durch Initialisierrung modifizierte Kaltstart-Meldungen
                                ;--------------------------------------------------------
                         C      	include BIOSCLD2
                         C      ; 23.12.88
                         C      ; - Anforderung des Datums bei "datvar"<>0
                         C      
                         C      ; Ende der Kaltstart-Initialisierungen
                         C      ;~~~~~~~~~~~~~~~~~~~~~~~~~~~~~~~~~~~~~
  094B    FB             C      	ei
  094C    21 E6EA        C      	ld	hl,kalts1	;erneuten kaltstart
  094F    22 D001        C      	ld	(BIOS00+1),hl	;umlenken
  0952    21 0AAD        C      	LD	HL,kaltm	;Startmeldung, variabler Teil
  0955    CD 0AA6        C      	CALL	cputms
                         C      
                         C      ; Hauptspeicher-Test TPA-Bereich
                         C      ;~~~~~~~~~~~~~~~~~~~~~~~~~~~~~~~
  0958    21 0D27        C      	ld	hl,ramtt
  095B    CD 0AA6        C      	call	cputms
  095E    21 C206        C      	ld	hl,tpaend+1
  0961    11 0E13        C      	ld	de,kaltsb+kaltsl+3;Kaltstart-Code nicht modif.
  0964    B7             C      	or	a
  0965    ED 52          C      	sbc	hl,de		;Restlaenge TPA (-3 fuer JP)
  0967    44             C      	ld	b,h
  0968    4D             C      	ld	c,l
  0969    EB             C      	ex	de,hl
  096A    7E             C      ramtz:	ld	a,(hl)
  096B    2F             C      	cpl
  096C    77             C      	ld	(hl),a
  096D    BE             C      	cp	(hl)		;angekommen?
  096E    20 2C          C      	jr	nz,ramter	;nein
  0970    2F             C      	cpl
  0971    77             C      	ld	(hl),a
  0972    23             C      	inc	hl
  0973    0B             C      	dec	bc
  0974    78             C      	ld	a,b
  0975    B1             C      	or	c
  0976    20 F2          C      	jr	nz,ramtz
  0978    21 0D49        C      	ld	hl,ramtok
  097B    CD 0AA6        C      	call	cputms
  097E    C3 09BC        C      	jp	ramten
  0981    7C             C      rameh:	ld	a,h
  0982    CD 0986        C      	call	dcnvoa
  0985    7D             C      	ld	a,l
                         C      
                         C      ; Rueckkonvertieren Byte in A nach (DE)
                         C      ; RET: 2 Zeichen ab (DE), DE zeigt auf naechstes freies Byte
BIOS CP/A, Buerocomputer (A5120/30 u. ae.)	MACRO-80 V3.50	25-Oct-85	Page	1-139


  0986    CD 0989        C      dcnvoa:	call	dcnva
                         C      
                         C      ; Rueckkonvertieren A in HEX-Ziffern nach (DE)
                         C      ; RET: A um 4 bits nach rechts rotiert
                         C      ;      DE zeigt auf naechstes Byte
  0989                   C      dcnvol:
  0989    0F             C      dcnva:	rrca			;linkes Halbbyte
  098A    0F             C      	rrca
  098B    0F             C      	rrca
  098C    0F             C      	rrca
  098D                   C      dcnvor:				;rechtes Halbbyte
  098D    F5             C      	push	af		;fuer 2. dcnva-Aufruf retten
  098E    E6 0F          C      	and	0fh
  0990    D6 0A          C      	sub	9+1
  0992    38 02          C      	jr	c,dcnvod	;0..9
  0994    C6 07          C      	add	a,7		;A..F
  0996    C6 3A          C      dcnvod:	add	a,'0'+10
  0998    12             C      	ld	(de),a
  0999    13             C      	inc	de
  099A    F1             C      	pop	af
  099B    C9             C      	ret
                         C      
  099C    11 0D70        C      ramter:	ld	de,ramead
  099F    CD 0981        C      	call	rameh
  09A2    11 C206        C      	ld	de,BDOS+6	;jp BDOS+6 vor diese Stelle
  09A5    2B             C      	dec	hl
  09A6    72             C      	ld	(hl),d
  09A7    2B             C      	dec	hl
  09A8    73             C      	ld	(hl),e
  09A9    2B             C      	dec	hl
  09AA    36 C3          C      	ld	(hl),0c3h
  09AC    22 E71E        C      	ld	(bdosre),hl	;diesen Sprung als BDOS setzen
  09AF    2B             C      	dec	hl
  09B0    11 0D85        C      	ld	de,ramete
  09B3    CD 0981        C      	call	rameh
  09B6    21 0D55        C      	ld	hl,ramert
  09B9    CD 0AA6        C      	call	cputms
  09BC                   C      ramten:
                         C      
                         C       IF uhrvar		;stellen der Uhr
  09BC    21 0A2D        C      	ld	hl,uhrini	;Aufforderung fuer Uhr stellen
  09BF    CD E6B9        C      	call	putmes		;ausgeben
  09C2    21 0A57        C      	ld	hl,uhrins
  09C5    E5             C      uhrin1:	push	hl
                         C       IF cpu eq c1715
                         C       ENDIF
  09C6    CD E578        C      	call	conin		;Zeichen holen
  09C9    E1             C      	pop	hl
                         C       IF cpu eq c1715
                         C       ENDIF
  09CA    FE 0D          C      	cp	0dh		;CR?
  09CC    CA 09D7        C      	jp	z,uhrw4		;ja, fertig
  09CF    CD 09DA        C      	call	uhrchr		;eingegebenes Zeichen auswerten
  09D2    7E             C      	ld	a,(hl)
  09D3    FE 20          C      	cp	' '		;rechtes Eingabe-Ende?
  09D5    20 EE          C      	jr	nz,uhrin1	;nein
  09D7    C3 0A67        C      uhrw4:	jp	uhrine		;ja, fertig
                         C      
  09DA    FE 08          C      uhrchr:	cp	08h		;back?
  09DC    28 35          C      	jr	z,uhrinb	;ja
  09DE    FE 7F          C      	cp	7fh		;del?
  09E0    28 31          C      	jr	z,uhrinb	;ja
BIOS CP/A, Buerocomputer (A5120/30 u. ae.)	MACRO-80 V3.50	25-Oct-85	Page	1-140


  09E2    FE 04          C      	cp	04h		;^D? (Kursor nach rechts)
  09E4    28 21          C      	jr	z,uhrinf	;ja
  09E6    FE 3A          C      	cp	'9'+1		;irgendeine Nicht-Ziffern-Taste?
  09E8    38 16          C      	jr	c,uhrinz	;nein
  09EA    2B             C      	dec	hl
  09EB    7E             C      	ld	a,(hl)
  09EC    23             C      	inc	hl
  09ED    FE 3A          C      	cp	3ah		;Position rechts neben Trennzeichen?
  09EF    D0             C      	ret	nc		;ja, Eingabe ignorieren
  09F0    2B             C      	dec	hl
  09F1    36 30          C      	ld	(hl),'0'	;sonst fuehrende Null
  09F3    0E 08          C      	ld	c,8
  09F5    CD 0A23        C      	call	uhrinc
  09F8    0E 30          C      	ld	c,'0'
  09FA    CD 0A23        C      	call	uhrinc
  09FD    23             C      	inc	hl		;und die Ziffer um eins nach rechts
  09FE    18 03          C      	jr	uhrinl
  0A00    FE 30          C      uhrinz:	cp	'0'		;Ziffer
  0A02    D8             C      	ret	c		;nein, ignorieren
  0A03    77             C      uhrinl:	ld	(hl),a		;Zeichen in Text
  0A04    4F             C      	ld	c,a		;und auf Bildschirm
  0A05    18 02          C      	jr	uhrif1
  0A07    0E 15          C      uhrinf:	ld	c,15h		;Kursor nach rechts
  0A09    23             C      uhrif1:	inc	hl		;Textposition nach rechts
  0A0A    CD 0A23        C      	call	uhrinc
  0A0D    7E             C      	ld	a,(hl)		;aktuelle Kursorposition
  0A0E    FE 3A          C      	cp	3ah		;Trennzeichen?
  0A10    30 F5          C      	jr	nc,uhrinf	;ja, uebergehen
  0A12    C9             C      	ret
                         C      
  0A13    2B             C      uhrinb:	dec	hl		;eine Position nach links ausfuehren
  0A14    0E 08          C      	ld	c,8		;Kursor nach links
  0A16    CD 0A23        C      	call	uhrinc
  0A19    7E             C      	ld	a,(hl)
  0A1A    FE 20          C      	cp	' '		;linkes Textende?
  0A1C    28 E9          C      	jr	z,uhrinf	;ja, back zuweit
  0A1E    FE 3A          C      	cp	3ah		;Trennzeichen?
  0A20    30 F1          C      	jr	nc,uhrinb	;ja, uebergehen
  0A22    C9             C      	ret
                         C      
  0A23    F5             C      uhrinc:	push	af
  0A24    E5             C      	push	hl
  0A25    C5             C      	push	bc
  0A26    CD D00C        C      	call	conol
  0A29    C1             C      	pop	bc
  0A2A    E1             C      	pop	hl
  0A2B    F1             C      	pop	af
  0A2C    C9             C      	ret
                         C      
  0A2D    0D 0A          C      uhrini:	db	0dh,0ah
  0A2F    2D 20 42 69    C      	db	'- Bitte Uhrzeit'
  0A33    74 74 65 20    C      
  0A37    55 68 72 7A    C      
  0A3B    65 69 74       C      
                         C       IF datvar
                         C       ENDIF
                         C       IF cpu eq c1715
                         C       ELSE
  0A3E    20 65 69 6E    C      	db	' eingeben!'
  0A42    67 65 62 65    C      
  0A46    6E 21          C      
                         C       ENDIF
BIOS CP/A, Buerocomputer (A5120/30 u. ae.)	MACRO-80 V3.50	25-Oct-85	Page	1-141


  0A48    0D 0A          C      	db	0dh,0ah
  0A4A    20 48 48 3A    C      	db	' HH:MM:SS'
  0A4E    4D 4D 3A 53    C      
  0A52    53             C      
                         C        IF datvar
                         C        ENDIF
  0A53    86             C      	db	86h		;hell ein
  0A54    0D 0A          C      	db	0dh,0ah
  0A56    20             C      	db	' '
  0A57    30 30 3A 30    C      uhrins:	db	'00:00:00'
  0A5B    30 3A 30 30    C      
                         C        IF datvar
                         C        ENDIF
  0A5F    20 84 0D 15    C      	db	' ',84h,0dh,15h	;normal ein, zurueck auf erste Eingabepos.
  0A63    00             C      	db	0
                         C      
  0A64    0D 0A 00       C      uhrinn:	db	0dh,0ah,0
                         C      
  0A67    21 0A64        C      uhrine:	ld	hl,uhrinn
  0A6A    CD E6B9        C      	call	putmes
  0A6D    11 0A57        C      	ld	de,uhrins
  0A70    21 0050        C      	ld	hl,bcduhr
                         C        IF datvar
                         C        ELSE
  0A73    06 03          C      	ld	b,3
                         C        ENDIF
  0A75    1A             C      uhrin4:	ld	a,(de)
  0A76    ED 6F          C      	rld
  0A78    13             C      	inc	de
  0A79    1A             C      	ld	a,(de)
  0A7A    ED 6F          C      	rld
  0A7C    13             C      	inc	de
  0A7D    13             C      	inc	de		;':' uebergehen
  0A7E    23             C      	inc	hl
  0A7F    10 F4          C      	djnz	uhrin4
                         C       ENDIF
                                
                                ;#############################################################
                                ; Kaltstart-Initialisierungen nach variabler Kaltstart-Meldung
                                ;-------------------------------------------------------------
                                 IF raf
                                 ENDIF
                                 IF rna
                                 ENDIF
                                 IF hdsk
                                 ENDIF
                         C      	include BIOSCLD3
                         C      ;12.01.89
                         C      ;17.05.89
                         C      ;05.06.89
                         C      
                         C      ;START CP/M
                         C      ;~~~~~~~~~~~
                         C       if wbootv eq 0
  0A81    21 BA00        C      	ld	hl,CCP		;CCP fuer Warmstart kopieren
  0A84    11 E7B7        C      	ld	de,ccpkop
  0A87    01 0811        C      	ld	bc,ccpkpl+bdskpl
  0A8A    ED B0          C      	ldir
                         C       endif
                         C      
                         C         if	(wbootv eq 3)	;;CCP nach RAM-Floppy laden
                         C         endif ;wbootv eq 3
BIOS CP/A, Buerocomputer (A5120/30 u. ae.)	MACRO-80 V3.50	25-Oct-85	Page	1-142


                         C         if (wbootv eq 2) or (wbootv eq 3)
                         C         endif ;(wbootv eq 2) or (wbootv eq 3)
                         C      
  0A8C    21 BA03        C      	ld	hl,CCP+3	;zum Eingang mit Kommandoloeschen
                         C       if cldcmx eq 0
  0A8F    3A 0AA7        C      	ld	a,(cjungf)
  0A92    B7             C      	or	a		;jungfr. Start?
  0A93    20 0E          C      	jr	nz,njung3	;nein
                         C       endif
  0A95    21 0D8F        C      	LD	HL,kltkom	;Kaltstartkommando
  0A98    11 BA07        C      	LD	DE,CCP+7	;in CCP eintragen
  0A9B    01 0081        C      	LD	BC,lkaltc
  0A9E    ED B0          C      	LDIR
  0AA0    21 BA00        C      	ld	hl,CCP		;zum Eingang ohne Komm.loeschen
  0AA3                   C      njung3:
                         C       if	wbootv eq 1	;Warmstart=Kaltstart, d.h. Code nur einmal
                         C       else
  0AA3    C3 E707        C      	jp	wbinit		;Warmstart-Initialisierungen
                         C       endif
                         C      
                         C      ; Meldungen Kaltstart
                         C      
  0AA6                   C      cputms:
  0AA6    3E 00          C      	ld	a,0		;jungfr. Kaltstart?
  0AA7                   C      cjungf	equ	$-1
  0AA8    B7             C      	or	a
  0AA9    C0             C      	ret	nz		;nein
  0AAA    C3 E6B9        C      	jp	putmes
                         C      
                         C      ; Konstanten fuer Kaltstart
                         C      ;==========================
  0AAD                   C      kaltm:
  0AAD    43 50 2F 41    C      	db	'CP/A'
  0AB1    2C 20 56 65    C      	db	', Version '
  0AB5    72 73 69 6F    C      
  0AB9    6E 20          C      
                         C      	version
  0ABB    32 35          C+     	db	'25'
  0ABD    2E             C+     	db	'.'
  0ABE    30 39          C+     	db	'09'
  0AC0    2E             C+     	db	'.'
  0AC1    38 39          C+     	db	'89'
  0AC3    2C 20 54 50    C      	db	', TPA '
  0AC7    41 20          C      
                         C      	hexout	tpa
  0010                   C+     	.RADIX	16
  0AC9    31 30 30 48    C+     	db	'100','H'
  000A                   C+     	.RADIX	10
  0ACD    20 2D 20       C      	db	' - '
                         C      	hexout	tpaend
  0010                   C+     	.RADIX	16
  0AD0    30 43 32 30    C+     	db	'0C205','H'
  0AD4    35 48          C+     
  000A                   C+     	.RADIX	10
                         C      
  0AD6    0D 0A          C      	db	0dh,0ah
                         C      	IF	monitor
                         C      	ELSE
  0AD8    2D 20 6F 68    C      	db	'- ohne BIOS-Monitor (Taste und Aufruf ignoriert)'
  0ADC    6E 65 20 42    C      
  0AE0    49 4F 53 2D    C      
  0AE4    4D 6F 6E 69    C      
BIOS CP/A, Buerocomputer (A5120/30 u. ae.)	MACRO-80 V3.50	25-Oct-85	Page	1-143


  0AE8    74 6F 72 20    C      
  0AEC    28 54 61 73    C      
  0AF0    74 65 20 75    C      
  0AF4    6E 64 20 41    C      
  0AF8    75 66 72 75    C      
  0AFC    66 20 69 67    C      
  0B00    6E 6F 72 69    C      
  0B04    65 72 74 29    C      
                         C      	ENDIF
                         C      
                         C       IF cpu eq c1715
                         C       ELSE
  0B08    0D 0A          C      	db	0dh,0ah
  0B0A    2D 20 54 61    C      	db	'- Tastatur: K76'
  0B0E    73 74 61 74    C      
  0B12    75 72 3A 20    C      
  0B16    4B 37 36       C      
  0B19    3F 3F          C      kbdtyp: db	'??'
                         C      
                         C       ENDIF
                         C       IF oss
                         C       ENDIF
                         C       IF	kes
                         C       ENDIF
                         C       IF	em256
  0B1B    0D 0A          C      	db	0dh,0ah
  0B1D    2D 20 31 36    C      	db	'- 16-Bit Erweiterungsmodul als RAM-Floppy '
  0B21    2D 42 69 74    C      
  0B25    20 45 72 77    C      
  0B29    65 69 74 65    C      
  0B2D    72 75 6E 67    C      
  0B31    73 6D 6F 64    C      
  0B35    75 6C 20 61    C      
  0B39    6C 73 20 52    C      
  0B3D    41 4D 2D 46    C      
  0B41    6C 6F 70 70    C      
  0B45    79 20          C      
  0B47    4D 3A 20 6D    C      kemlwt: db	'M: mit '
  0B4B    69 74 20       C      
  0B4E    3F 3F 3F 20    C      kemmc:	db	'??? kByte'
  0B52    6B 42 79 74    C      
  0B56    65             C      
                         C       ENDIF
                         C       IF	mkd256
                         C       ENDIF
                         C       IF raf
                         C       ENDIF
                         C      
                         C       IF rna
                         C       ENDIF
                         C      
  0B57    0D 0A          C      	db	0dh,0ah
  0B59    2D 20 44 69    C      	db	'- Disketten: '
  0B5D    73 6B 65 74    C      
  0B61    74 65 6E 3A    C      
  0B65    20             C      
  0000                   C      @din	aset	0
                         C      	IRP	di,<A,B,C,D>
                         C       IF disk&di
                         C      @din	aset	@din+1
                         C      	if	@din gt 1
                         C      	db	'/'
BIOS CP/A, Buerocomputer (A5120/30 u. ae.)	MACRO-80 V3.50	25-Oct-85	Page	1-144


                         C      	endif
                         C      	db	'&di:'
                         C      	db	((disk&di mod 1000)/100) or '0','"('
                         C      	db	((disk&di mod 100)/10) or '0'
                         C      	db	(disk&di mod 10) or '0'
                         C      	db	','
                         C      	if	disk&di ge 10000
                         C      	db	'DD'
                         C      	else
                         C      	db	'SD'
                         C      	endif
                         C      	db	','
                         C      	if	((disk&di mod 10000)/1000) and 00000001b
                         C      	db	'DS'
                         C      	else
                         C      	db	'SS'
                         C      	endif
                         C      	if	((disk&di mod 10000)/1000) and 00000010b
                         C      	db	',Verify'
                         C      	else
                         C      	endif
                         C      	db	')'
                         C       ENDIF
                         C      	ENDM
  0B66    41 3A          C+     	db	'A:'
  0B68    35 22 28       C+     	db	((disk&A mod 1000)/100) or '0','"('
  0B6B    38             C+     	db	((disk&A mod 100)/10) or '0'
  0B6C    30             C+     	db	(disk&A mod 10) or '0'
  0B6D    2C             C+     	db	','
  0B6E    44 44          C+     	db	'DD'
  0B70    2C             C+     	db	','
  0B71    44 53          C+     	db	'DS'
  0B73    29             C+     	db	')'
  0B74    2F             C+     	db	'/'
  0B75    42 3A          C+     	db	'B:'
  0B77    35 22 28       C+     	db	((disk&B mod 1000)/100) or '0','"('
  0B7A    38             C+     	db	((disk&B mod 100)/10) or '0'
  0B7B    30             C+     	db	(disk&B mod 10) or '0'
  0B7C    2C             C+     	db	','
  0B7D    44 44          C+     	db	'DD'
  0B7F    2C             C+     	db	','
  0B80    44 53          C+     	db	'DS'
  0B82    29             C+     	db	')'
  0B83    2F             C+     	db	'/'
  0B84    43 3A          C+     	db	'C:'
  0B86    35 22 28       C+     	db	((disk&C mod 1000)/100) or '0','"('
  0B89    38             C+     	db	((disk&C mod 100)/10) or '0'
  0B8A    30             C+     	db	(disk&C mod 10) or '0'
  0B8B    2C             C+     	db	','
  0B8C    44 44          C+     	db	'DD'
  0B8E    2C             C+     	db	','
  0B8F    44 53          C+     	db	'DS'
  0B91    29             C+     	db	')'
  0B92    0D 0A          C      	db	0dh,0ah
  0B94    20 20 20 20    C      	db	'             max. phys. Sektorlaenge: '
  0B98    20 20 20 20    C      
  0B9C    20 20 20 20    C      
  0BA0    20 6D 61 78    C      
  0BA4    2E 20 70 68    C      
  0BA8    79 73 2E 20    C      
  0BAC    53 65 6B 74    C      
  0BB0    6F 72 6C 61    C      
BIOS CP/A, Buerocomputer (A5120/30 u. ae.)	MACRO-80 V3.50	25-Oct-85	Page	1-145


  0BB4    65 6E 67 65    C      
  0BB8    3A 20          C      
                         C      	if	dbufsz le 7
                         C      	else
                         C      	decout	<1 shl dbufsz>
  0BBA    31 30 32 34    C+     	db	'1024'
                         C      	endif
  0BBE    2C 20          C      	db	', '
                         C       if format
  0BC0    6D 69 74       C      	db	'mit'
                         C       endif
  0BC3    20 61 75 74    C      	db	' autom. Formaterkennung'
  0BC7    6F 6D 2E 20    C      
  0BCB    46 6F 72 6D    C      
  0BCF    61 74 65 72    C      
  0BD3    6B 65 6E 6E    C      
  0BD7    75 6E 67       C      
  0BDA    0D 0A          C      	db	0dh,0ah
                         C       if chdvar eq 0
                         C       else
                         C       if1
                         C       endif
  0BDC    2D 20 65 69    C      	db	'- einige I/O-Byte-Zuordnungen:'
  0BE0    6E 69 67 65    C      
  0BE4    20 49 2F 4F    C      
  0BE8    2D 42 79 74    C      
  0BEC    65 2D 5A 75    C      
  0BF0    6F 72 64 6E    C      
  0BF4    75 6E 67 65    C      
  0BF8    6E 3A          C      
  0BFA    0D 0A 20 20    C      	db	0dh,0ah,'  Bit 7,6 (LST:-Kanal):'
  0BFE    42 69 74 20    C      
  0C02    37 2C 36 20    C      
  0C06    28 4C 53 54    C      
  0C0A    3A 2D 4B 61    C      
  0C0E    6E 61 6C 29    C      
  0C12    3A             C      
                         C      	if	iobtty
  0C13    0D 0A 20 20    C      	db	0dh,0ah,'      00 (TTY:): '
  0C17    20 20 20 20    C      
  0C1B    30 30 20 28    C      
  0C1F    54 54 59 3A    C      
  0C23    29 3A 20       C      
                         C      	druckt	ttydat
  0C26    47 65 72 61    C+     	db	'Geraet an Portadresse '
  0C2A    65 74 20 61    C+     
  0C2E    6E 20 50 6F    C+     
  0C32    72 74 61 64    C+     
  0C36    72 65 73 73    C+     
  0C3A    65 20          C+     
  0010                   C+     	.RADIX	16
  0C3C    35 30 48       C+     	db	'50','H'
  000A                   C+     	.RADIX	10
                         C      	endif
  0C3F    0D 0A 20 20    C      	db	0dh,0ah,'      01 (CRT:): LST:-Ausgabe auf Bildschirm'
  0C43    20 20 20 20    C      
  0C47    30 31 20 28    C      
  0C4B    43 52 54 3A    C      
  0C4F    29 3A 20 4C    C      
  0C53    53 54 3A 2D    C      
  0C57    41 75 73 67    C      
  0C5B    61 62 65 20    C      
BIOS CP/A, Buerocomputer (A5120/30 u. ae.)	MACRO-80 V3.50	25-Oct-85	Page	1-146


  0C5F    61 75 66 20    C      
  0C63    42 69 6C 64    C      
  0C67    73 63 68 69    C      
  0C6B    72 6D          C      
                         C      	if	ioblpt
  0C6D    0D 0A 20 20    C      	db	0dh,0ah,'      10 (LPT:): '
  0C71    20 20 20 20    C      
  0C75    31 30 20 28    C      
  0C79    4C 50 54 3A    C      
  0C7D    29 3A 20       C      
                         C      	druckt	lptdat
  0C80    47 65 72 61    C+     	db	'Geraet an Portadresse '
  0C84    65 74 20 61    C+     
  0C88    6E 20 50 6F    C+     
  0C8C    72 74 61 64    C+     
  0C90    72 65 73 73    C+     
  0C94    65 20          C+     
  0010                   C+     	.RADIX	16
  0C96    35 45 48       C+     	db	'5E','H'
  000A                   C+     	.RADIX	10
                         C      	endif
  0C99    0D 0A 20 20    C      	db	0dh,0ah,'      11 (UL1:): LST:-Ausgabe hex auf Bildschirm'
  0C9D    20 20 20 20    C      
  0CA1    31 31 20 28    C      
  0CA5    55 4C 31 3A    C      
  0CA9    29 3A 20 4C    C      
  0CAD    53 54 3A 2D    C      
  0CB1    41 75 73 67    C      
  0CB5    61 62 65 20    C      
  0CB9    68 65 78 20    C      
  0CBD    61 75 66 20    C      
  0CC1    42 69 6C 64    C      
  0CC5    73 63 68 69    C      
  0CC9    72 6D          C      
                         C      	if	iobuc1
  0CCB    0D 0A 20 20    C      	db	0dh,0ah,'  Bit 5,4/3,2/1,0 (UP2:-/UR2:-/UC1:-Kanaele):'
  0CCF    42 69 74 20    C      
  0CD3    35 2C 34 2F    C      
  0CD7    33 2C 32 2F    C      
  0CDB    31 2C 30 20    C      
  0CDF    28 55 50 32    C      
  0CE3    3A 2D 2F 55    C      
  0CE7    52 32 3A 2D    C      
  0CEB    2F 55 43 31    C      
  0CEF    3A 2D 4B 61    C      
  0CF3    6E 61 65 6C    C      
  0CF7    65 29 3A       C      
  0CFA    0D 0A 20 20    C      	db	0dh,0ah,'      11 (UC1:): '
  0CFE    20 20 20 20    C      
  0D02    31 31 20 28    C      
  0D06    55 43 31 3A    C      
  0D0A    29 3A 20       C      
                         C      	druckt	uc1dat
  0D0D    47 65 72 61    C+     	db	'Geraet an Portadresse '
  0D11    65 74 20 61    C+     
  0D15    6E 20 50 6F    C+     
  0D19    72 74 61 64    C+     
  0D1D    72 65 73 73    C+     
  0D21    65 20          C+     
  0010                   C+     	.RADIX	16
  0D23    35 30 48       C+     	db	'50','H'
  000A                   C+     	.RADIX	10
BIOS CP/A, Buerocomputer (A5120/30 u. ae.)	MACRO-80 V3.50	25-Oct-85	Page	1-147


                         C      	endif
                         C       endif
                         C      
  0D26    00             C      	db	0	;ende-flag putmes
                         C      
                         C      ; RAM-Test-Texte
                         C      ;~~~~~~~~~~~~~~~
  0D27    0D 0A          C      ramtt:	db	0dh,0ah
  0D29    2D 20 52 41    C      	db	'- RAM-Test fuer TPA-Bereich... ',0
  0D2D    4D 2D 54 65    C      
  0D31    73 74 20 66    C      
  0D35    75 65 72 20    C      
  0D39    54 50 41 2D    C      
  0D3D    42 65 72 65    C      
  0D41    69 63 68 2E    C      
  0D45    2E 2E 20 00    C      
  0D49    54 50 41 20    C      ramtok: db	'TPA ist OK!',0
  0D4D    69 73 74 20    C      
  0D51    4F 4B 21 00    C      
  0D55    0D 0A 21 21    C      ramert: db	0dh,0ah,'!!RAM-Fehler auf Adresse '
  0D59    52 41 4D 2D    C      
  0D5D    46 65 68 6C    C      
  0D61    65 72 20 61    C      
  0D65    75 66 20 41    C      
  0D69    64 72 65 73    C      
  0D6D    73 65 20       C      
  0D70    58 58 58 58    C      ramead: db	'XXXXH!!  TPA nur bis '
  0D74    48 21 21 20    C      
  0D78    20 54 50 41    C      
  0D7C    20 6E 75 72    C      
  0D80    20 62 69 73    C      
  0D84    20             C      
  0D85    59 59 59 59    C      ramete: db	'YYYYH.',07h,0dh,0ah,0
  0D89    48 2E 07 0D    C      
  0D8D    0A 00          C      
                         C      
                         C      ; Kaltstart-Kommando
                         C      ;-------------------
  0D8F    7F             C      kltkom: db	kaltce-kaltc
  0D90                   C      kaltc:	coldcm
  0D90    44 49 52 20    C+     kltbef: db	'DIR *.COM',0
  0D94    2A 2E 43 4F    C+     
  0D98    4D 00          C+     
  0D9A                   C+     	ds	kltbef+127-$,0
  0E0F    00             C      kaltce: DB	0		;00h notwendig fuer CCP
  0081                   C      lkaltc	equ	$-kltkom	;Laenge gesamtes Kommando
                         C      
                         C      	.DEPHASE
  0C90                   C      kaltsl	equ	$-kaltsc
                         C      
  2456'                  C      kalten	equ	$
                         C      
                                
                                ;##############################################################
  2456'                         biosce: ;Code-Ende fuer BIOS
                                
                                	END
BIOS CP/A, Buerocomputer (A5120/30 u. ae.)	MACRO-80 V3.50	25-Oct-85	Page	S


Macros:
CHARDB          CHDWARM         COLDCM          COSTS           CRTOFF          
CRTON           CRTWARM         DECDB           DECOUT          DRUCKT          
DSKWARM         HEXDB           HEXOUT          KBDWARM         PRINTD          
PRINTH          PRINTV          PRINTX          RFLWARM         SETBS           
SETRAM          TIMWARM         VERSION         WARMIN          

Symbols:
0001 	@CDT            0100 	@DIFF           0003 	@DIN            
0039 	@DPBHL          F697 	@DSAD           0001 	@FACT           
0000 	@FSYS           00C1 	@L              000C 	@LCR            
000C 	@LCS            0050 	@LD             0051 	@LS             
0713 	@LT             0014 	@WR1            0001 	@WRITE          
0080 	@WSRE           0000 	ADM3A           DC1E 	ALLOC           
F08C 	ALVA            F0FE 	ALVB            F170 	ALVC            
F1E2 	ALVEM           E217 	ALWNR           E218 	ASPNR           
E665 	ASYNHL          E651 	ASYNRT          E662 	ASYNSV          
0007 	B1715           0050 	BCDUHR          C200 	BDOS            
0005 	BDOSJP          0E00 	BDOSLN          E71E 	BDOSRE          
0011 	BDSKPL          E182 	BERCRC          0000I'	BIOS            
D000 	BIOS00          D003 	BIOS03          D006 	BIOS06          
D009 	BIOS09          D00C 	BIOS0C          D00F 	BIOS0F          
D012 	BIOS12          D015 	BIOS15          D018 	BIOS18          
D01B 	BIOS1B          D01E 	BIOS1E          D021 	BIOS21          
D024 	BIOS24          D027 	BIOS27          D02A 	BIOS2A          
D02D 	BIOS2D          D030 	BIOS30          D033 	BIOS33          
D036 	BIOS36          D038 	BIOS38          D03B 	BIOS3B          
D03D 	BIOS3D          D03F 	BIOS3F          D000 	BIOSAD          
2456I'	BIOSCE          F697 	BIOSDE          E7B7 	BIOSDS          
3000 	BIOSL0          2F99 	BIOSLN          E6B9 	BIOSMS          
FC00 	BSANF1          F800 	BSANF2          03D7 	BSBAB1          
0472 	BSBAB2          050A 	BSBABI          FFFF 	BSEND1          
FF7F 	BSEND2          0084 	BSINIC          0040 	BSSP1           
0050 	BSSP2           E544 	BSUHR           0010 	BSZL1           
0018 	BSZL2           0007 	C1715           E6B8 	CALLHL          
BA00 	CCP             E7B7 	CCPKOP          EFC8 	CCPKPE          
0800 	CCPKPL          0800 	CCPLN           D863 	CDSIND          
D87B 	CDSINI          D847 	CDSINS          D86B 	CDSINW          
D12F 	CDSIOI          D7D4 	CDSIOO          D7DA 	CDSIOS          
0000U	CDTCD1          0001 	CDTDC1          0002 	CDTDTR          
0000 	CDTH54          0000 	CDTN56          0000 	CDTP54          
0000 	CDTP56          0000 	CDTPIO          0000 	CDTSIB          
FFFF 	CHDVAR          E600 	CHKSP           E620 	CHKSPD          
E60D 	CHKSPN          E61D 	CHKSPX          DBC1 	CHKUNA          
00FF 	CIGN            0522 	CIINI1          0525 	CIINI2          
053A 	CIINI3          053A 	CIISRT          0AA7 	CJUNGF          
0000 	CLDCMX          E771 	CLDDEV          D648 	CNUML1          
0754 	COC3SE          0752 	COCP3S          D26E 	COCPM1          
D282 	COCPM2          070F 	COI04L          0703 	COI04W          
072D 	COI06L          06D0 	COI344          06DA 	COI348          
071A 	COI34L          0703 	COI34W          0739 	COI36L          
0703 	COI36W          06F7 	COI37C          06CA 	COI37P          
06DF 	COI37T          0703 	COI37W          0745 	COI3SL          
06EB 	COI3ST          0703 	COI3SW          06D5 	COI834          
0726 	COI84L          0572 	COICNP          074C 	COICPS          
06E2 	COICPT          0660 	COIDUM          058D 	COIN34          
0948 	COINIE          063B 	COISTC          0639 	COISTP          
0593 	COITN1          05CE 	COITN2          05F0 	COITS2          
0607 	COITS3          061E 	COITS4          0635 	COITS5          
0562 	COITYP          E578 	CONIN           D00C 	CONOL           
E584 	CONOUT          E56C 	CONST           D299 	COSTR           
D29B 	COSTR0          D2A8 	COSTR1          0000 	COSTU           
BIOS CP/A, Buerocomputer (A5120/30 u. ae.)	MACRO-80 V3.50	25-Oct-85	Page	S-1


07F8 	CP0454          084D 	CP0458          07F8 	CP3454          
084D 	CP3458          08E9 	CP37            08A2 	CP8454          
0000 	CPASTZ          0001 	CPD             004E 	CPMEXT          
D108 	CPMX00          D10B 	CPMX03          D10E 	CPMX06          
D111 	CPMX09          D114 	CPMX0C          D120 	CPMX18          
D123 	CPMX1B          D126 	CPMX1E          D129 	CPMX21          
0006 	CPU             0019 	CPUCLK          0AA6 	CPUTMS          
E168 	CRCBD           E169 	CRCBEG          E109 	CRCBEL          
E1F8 	CRCBER          E0C5 	CRCBES          E118 	CRCERX          
E153 	CRCNB           E15E 	CRCVGL          E213 	CRERC           
0000 	CRT             D612 	CRT1ZS          D60A 	CRT2ZS          
0800 	CRTBFL          D571 	CRTBSL          D574 	CRTBSR          
D696 	CRTCCH          D03A 	CRTCCN          D568 	CRTCL           
D5F6 	CRTCL1          D5F3 	CRTCLK          D5EE 	CRTCOF          
D038 	CRTCPS          D549 	CRTCR           D5EA 	CRTCRT          
D58A 	CRTCUP          D4AD 	CRTCUR          D567 	CRTDEL          
D5DA 	CRTDL1          D5C5 	CRTDLL          D5E4 	CRTESC          
D52E 	CRTFA1          D534 	CRTFA2          D520 	CRTFA3          
D51D 	CRTFFL          D622 	CRTHD1          D624 	CRTHD2          
D652 	CRTHD3          D64A 	CRTHD4          D586 	CRTHOM          
D61A 	CRTHRD          D5C0 	CRTIL1          D5A9 	CRTINL          
D48D 	CRTLC           0004 	CRTLCL          D55A 	CRTLF           
D4AE 	CRTM01          D4B5 	CRTM02          D4B9 	CRTM03          
D4BC 	CRTM04          D4BF 	CRTM05          D4C7 	CRTM06          
D4CA 	CRTM07          D50A 	CRTM08          D510 	CRTM09          
D515 	CRTM10          D540 	CRTM11          D54A 	CRTM12          
D54D 	CRTM13          D55B 	CRTM14          D563 	CRTM15          
D569 	CRTM16          D572 	CRTM17          D575 	CRTM18          
D587 	CRTM19          D58B 	CRTM20          D592 	CRTM21          
D61C 	CRTM22          D61F 	CRTM23          D623 	CRTM24          
D22C 	CRTM32          D21F 	CRTM33          D223 	CRTM34          
D1C3 	CRTM35          D196 	CRTM36          051E 	CRTM43          
D5AE 	CRTM44          D5B9 	CRTM45          D5BC 	CRTM46          
D5CA 	CRTM47          D5DB 	CRTM48          D53F 	CRTNFA          
D4F7 	CRTNOP          D525 	CRTNSP          D454 	CRTO            
D496 	CRTO02          D4B7 	CRTO03          D4F8 	CRTO04          
D50F 	CRTO05          D518 	CRTO06          D51C 	CRTO07          
D545 	CRTO08          D4D7 	CRTO09          D4E7 	CRTO11          
D54F 	CRTO12          D5A2 	CRTO13          D5EF 	CRTO14          
D4D0 	CRTO84          D4D0 	CRTO85          D4D0 	CRTO86          
D4D0 	CRTO87          D4AB 	CRTOBS          D47F 	CRTOE1          
D469 	CRTONC          D491 	CRTOTI          D4AC 	CRTSBL          
D12C 	CRTST           D665 	CRTUML          D596 	CRTZL           
D59A 	CRTZLR          D243 	CST34A          D24B 	CST34B          
075C 	CST37           076C 	CST37B          0772 	CST37E          
F0BE 	CSVA            F130 	CSVB            F1A2 	CSVC            
00DF 	CTLC            0000 	CTRLST          0754 	CWI34           
075C 	CWI34E          0000 	DATVAR          DEF2 	DBCDB           
DEF3 	DBDEV           DEF9 	DBDMA           DF0B 	DBERRF          
DEF2 	DBFLG           DEAC 	DBL1K           DEAF 	DBL2K           
DEB2 	DBL2K0          DCD9 	DBMAT           DC6D 	DBN             
DF09 	DBNB            DCD6 	DBPRR           DEF6 	DBSEC           
DC9E 	DBSEC0          DCA7 	DBSECM          DCB0 	DBSECO          
DC9B 	DBSECZ          DEF5 	DBSID           DEF7 	DBSLC           
DEF8 	DBSNB           DC8C 	DBSNBZ          DD17 	DBTRAN          
DEF4 	DBTRK           DD11 	DBTRW           F282 	DBUF            
000A 	DBUFSZ          DEFB 	DCDB            0989 	DCNVA           
0986 	DCNVOA          0996 	DCNVOD          0989 	DCNVOL          
098D 	DCNVOR          D466 	DCURS           DF02 	DDMA            
DEFC 	DDRIVE          0004 	DEFAUL          E5F4 	DELSPR          
E5E7 	DELSPS          DED2 	DERRCD          DECF 	DERRMS          
DE1C 	DERRR           DED1 	DERRRW          DEE0 	DERRSC          
BIOS CP/A, Buerocomputer (A5120/30 u. ae.)	MACRO-80 V3.50	25-Oct-85	Page	S-2


DEDC 	DERRTR          DEDE 	DERRTS          D492 	DESC            
0000 	DEV             0000 	DFBPRR          0004 	DFBTR           
0002 	DFBWR           DEFB 	DFLG            DEEB 	DFRCDB          
E061 	DFRCOD          DEEB 	DFRFLG          DEEC 	DFRMDV          
DEED 	DFRMTR          0002 	DFWR            E7B3 	DGETP0          
E794 	DGETPB          E385 	DINI1           E388 	DINI2           
E38B 	DINI3           E2AE 	DIO             E2BB 	DIO2            
DF13 	DIOCAD          DF0C 	DIOCDB          DF0D 	DIOCDE          
0009 	DIOCDL          DF0C 	DIOCFL          DF10 	DIOCSE          
DF0F 	DIOCSI          DF11 	DIOCSL          DF12 	DIOCSN          
DF0E 	DIOCTR          E2B3 	DIODMA          E3A7 	DIOEND          
DE05 	DIOERT          0000 	DIOF00          0003 	DIOFFM          
0005 	DIOFHD          0001 	DIOFID          0006 	DIOFPS          
0007 	DIOFS1          0004 	DIOFTR          0002 	DIOFWR          
E2E2 	DIOGO           E2E8 	DIOKL           E2DF 	DIOM01          
E28B 	DIOM02          E2DB 	DIOM03          E3B3 	DIOM07          
E3C5 	DIOM08          E3CF 	DIOM09          E372 	DIOM10          
E3F1 	DIOM11          E2CB 	DIOM13          E2E6 	DIOMD1          
E30A 	DIOMD2          E2D5 	DIOMR           E2DA 	DIOMRK          
DDC4 	DIONFT          E39C 	DIONS           E3A6 	DIONSE          
E2D0 	DIONSS          E312 	DIOOP           DDAF 	DIOPHY          
E369 	DIORD           E36D 	DIORDS          E37F 	DIORKL          
E26E 	DIORTN          DDAF 	DIORTY          E267 	DIORUN          
E37A 	DIOSL1          E3DA 	DIOSL2          DDAA 	DIOSSP          
E2CA 	DIOSTP          E30B 	DIOSYN          E321 	DIOTR0          
E342 	DIOTR1          E34A 	DIOTRE          E321 	DIOTRR          
DD92 	DIOTRS          DD81 	DIOTS1          DD6F 	DIOTS2          
DD80 	DIOTS4          E314 	DIOTSR          DD93 	DIOTSS          
E3EC 	DIOW00          E3EA 	DIOWM1          E3D9 	DIOWRT          
F00C 	DIRBUF          0003 	DISK5           0000 	DISK8           
2D3C 	DISKA           2D3C 	DISKB           2D3C 	DISKC           
0000 	DISKD           2D3C 	DISKDI          DD3B 	DISKII          
DD31 	DISKIO          0003 	DISKNB          E3AD 	DIWMFM          
E3C0 	DIWMFS          0003 	DLGINT          F202 	DMABUF          
DD0A 	DMOVEW          E3DC 	DOTI1           E3DE 	DOTI2           
E3E0 	DOTI3           D06F 	DPBA            0009 	DPBALC          
D0A2 	DPBB            0011 	DPBBFM          0003 	DPBBLM          
0002 	DPBBLS          D0D5 	DPBC            000B 	DPBCHK          
0007 	DPBDIR          0015 	DPBDNR          E4A9 	DPBEM           
0004 	DPBEXM          0004 	DPBF86          0005 	DPBFDS          
0002 	DPBFFM          000F 	DPBFLG          0007 	DPBFND          
0006 	DPBFRM          0003 	DPBFSM          0003 	DPBFSV          
0033 	DPBLNG          E4A9 	DPBM            000D 	DPBOFS          
0016 	DPBPTR          0005 	DPBSIZ          0010 	DPBSLC          
0013 	DPBSN0          0000 	DPBSPT          0017 	DPBSTI          
0012 	DPBSTP          0019 	DPBSTR          0007 	DPBT52          
0004 	DPBT5Z          0005 	DPBT80          0003 	DPBTDD          
0000 	DPBTDS          0014 	DPBTRK          0006 	DPBTWV          
0018 	DPBTYP          D03F 	DPHA            E499 	DPHAA           
D04F 	DPHAB           D05F 	DPHAC           0000 	DPHAD           
0000 	DPHAE           0000 	DPHAF           0000 	DPHAG           
0000 	DPHAH           0000 	DPHAI           0000 	DPHAJ           
0000 	DPHAK           0000 	DPHAL           E499 	DPHAM           
0000 	DPHAN           0000 	DPHAO           0000 	DPHAP           
E77A 	DPHATB          D04F 	DPHB            D05F 	DPHC            
E499 	DPHEM           E499 	DPHM            000D 	DPHNB           
E05F 	DPREC1          DFA9 	DPREC2          DFAC 	DPRECN          
E063 	DPRETR          DEE4 	DRDCDB          DEE5 	DRDDEV          
DEE4 	DRDFLG          D9B6 	DRDFRM          DEE6 	DRDTRK          
DF37 	DRV0            DF40 	DRV0A           DC22 	DRW             
DC4E 	DRWBNR          DBFC 	DRWERR          DD2E 	DRWSEC          
DEFF 	DSECTR          D996 	DSELNB          E254 	DSIDMT          
BIOS CP/A, Buerocomputer (A5120/30 u. ae.)	MACRO-80 V3.50	25-Oct-85	Page	S-3


E07D 	DSIDMZ          0009 	DSIDTL          DD29 	DSIDTR          
DD26 	DSIDTT          DB3C 	DSIZDZ          DB39 	DSIZME          
DB36 	DSIZMZ          0000 	DSK5FM          0003 	DSK5MF          
0003 	DSK80           0000 	DSK8FM          0000 	DSK8MF          
DF93 	DSKDA           DF80 	DSKDAW          0003 	DSKDS           
DF80 	DSKMO1          DF95 	DSKMON          DD31 	DSKTRA          
0004 	DSLBLK          0002 	DSLDIR          0001 	DSLFO           
0005 	DSLL            E230 	DSLN0           E239 	DSLN1           
E242 	DSLN2           E24B 	DSLN3           0009 	DSLNL           
E21D 	DSLNMT          E147 	DSLNMZ          0003 	DSLOFF          
0001 	DSLSPT          0000 	DSLTRK          0000 	DSLVO           
DCFA 	DSMOVE          D6DF 	DSWE            0001 	DSY5            
D697 	DSZTA           0018 	DSZTAL          DEFD 	DTRACK          
E0D7 	DTRDYT          E0DA 	DTRDYW          E0D7 	DTRDYZ          
E2A2 	DTRNER          E2A5 	DTRNSR          DE3C 	DTROK           
E102 	DTRRDE          E2A8 	DTRRDR          E29E 	DTRRET          
DE5C 	DTRSL0          DE70 	DTRSL1          DE84 	DTRSL2          
DE98 	DTRSL3          DE48 	DTRSLA          DFBA 	DTRSLL          
E29F 	DTRTOR          E29F 	DTRWJR          E0F6 	DTRWRE          
E2AB 	DTRWRR          D12F 	DUMI            D132 	DUMO            
D13F 	DUMOH           D12C 	DUMST           DF0A 	DWRTYP          
0001 	EM256           4000 	EM256ADR        0261 	EMINA           
03D0 	EMINE           02B2 	EMT0            02B6 	EMT1            
02CD 	EMT2            0001 	ERRVAR          0001 	ESCPC           
0007 	F1715           0001 	FDC             000B 	FDC3            
E0E9 	FEHRET          0220 	FL.KA1          0226 	FL.KA2          
0235 	FL.KA3          023D 	FL.KA4          023F 	FL.KA5          
0249 	FL.KA6          025D 	FL.KA7          E1A5 	FL.STO          
E142 	FL.TO1          E177 	FL.TSB          E1B6 	FL.ZTO          
0011 	FLCOAC          0010 	FLCOAD          0013 	FLCOBC          
0012 	FLCOBD          0015 	FLDAAC          0014 	FLDAAD          
0017 	FLDABC          0016 	FLDABD          E146 	FLMODF          
DF15 	FLOPPY          E1D8 	FLRES           0018 	FLSEL           
0001 	FORMAT          E1EE 	FT.ADR          E1F5 	FT.ANZ          
E1ED 	FT.KOM          E1F4 	FT.LEN          E1F0 	FT.LWN          
E1F3 	FT.SEC          E1F2 	FT.SID          E1F7 	FT.STI          
E1F6 	FT.STP          E1F1 	FT.TRK          4000 	HBEMADR         
0000 	HDSK            E1D0 	HEADUP          DB65 	HOME            
DB71 	HOME1           00DA 	HRLC            02EC 	INL001          
02F5 	INL003          0311 	INL004          0320 	INL005          
0284 	INLOOP          0001 	INSLIN          0004 	INT16           
E536 	INTCRT          E4F0 	INTKBD          E4F6 	INTRAF          
E4F3 	INTRBC          E4FA 	INTRET          E4F5 	INTRHL          
E4F8 	INTSP           F00C 	INTSTK          00D0 	INTVB           
01B6 	INTVCL          F700 	INTVEC          00D0 	INTVL           
F7D0 	INTVR           00E0 	INTVSY          00D0 	INTVUC          
2DBE 	IOBLPT          0713 	IOBTTY          0713 	IOBUC1          
0001 	IOBVAR          0003 	IOBYTE          E5D3 	IODIS1          
E5CC 	IODISP          E1AD 	ITIMEO          00F8 	IVCTC0          
00FA 	IVCTC1          00FC 	IVCTC2          00FE 	IVCTC3          
00E8 	IVDSK1          00EA 	IVDSK2          00E0 	IVPAR           
00E2 	IVPIOD          00E6 	IVPROT          00F0 	IVPUN1          
00F6 	IVPUN2          00F2 	IVRDR1          00F4 	IVRDR2          
00D0 	IVSIO0          00D2 	IVSIO1          00D4 	IVSIO2          
00D6 	IVSIO3          00D8 	IVSIO4          00DA 	IVSIO5          
00DC 	IVSIO6          00DE 	IVSIO7          0001 	K2521           
0006 	K2526           075D 	K37DM1          06CB 	K37DM2          
D2C4 	K37DM3          D2D7 	K37DM4          D2E3 	K37DM5          
D2EF 	K37DM6          D30C 	K37DM7          D313 	K37DM8          
0641 	K37PAR          000A 	K37PRL          0000 	K5120           
0001 	K5122           0006 	K5126           0000 	K7024           
0002 	K8915           0D90 	KALTC           0E0F 	KALTCE          
BIOS CP/A, Buerocomputer (A5120/30 u. ae.)	MACRO-80 V3.50	25-Oct-85	Page	S-4


2456'	KALTEN          0AAD 	KALTM           E6EA 	KALTS1          
0180 	KALTSB          17C6'	KALTSC          0C90 	KALTSL          
E7B7 	KALTST          0043 	KBDB3O          0042 	KBDBCI          
D194 	KBDBCL          0041 	KBDBCS          D162 	KBDBFE          
0014 	KBDBL           F682 	KBDBUF          0001 	KBDCAL          
D184 	KBDCO           D1D9 	KBDCO1          D1DA 	KBDCO2          
D269 	KBDCP1          0000 	KBDCPB          0065 	KBDCPL          
D31C 	KBDCPT          D1E7 	KBDI            D21E 	KBDINN          
D28E 	KBDLCS          D1E7 	KBDMD1          D2B0 	KBDMD2          
D25B 	KBDMD3          D26D 	KBDMT1          D18B 	KBDNCO          
D177 	KBDNCT          D1B3 	KBDNHC          D1C0 	KBDNSL          
D19C 	KBDNST          D1A3 	KBDNSY          0000 	KBDOTP          
0003 	KBDP3O          0005 	KBDP5O          0006 	KBDPCI          
0001 	KBDPCS          0000 	KBDPIN          D1D6 	KBDPT1          
D1C2 	KBDPUT          D27D 	KBDRC1          D281 	KBDRC2          
D271 	KBDRC3          D291 	KBDRC4          D296 	KBDRC5          
D282 	KBDRC6          D253 	KBDRCH          D26C 	KBDRCU          
D168 	KBDRDT          0052 	KBDS2I          0053 	KBDS2S          
0059 	KBDS2T          0052 	KBDS3I          0053 	KBDS3S          
005A 	KBDS3T          0052 	KBDS4I          0053 	KBDS4S          
000C 	KBDS4T          004E 	KBDS5I          004F 	KBDS5S          
004A 	KBDS5T          005C 	KBDSCI          005D 	KBDSCS          
0058 	KBDSCT          D2AB 	KBDSLM          063E 	KBDSMI          
063F 	KBDSMS          063D 	KBDSMT          0640 	KBDSNR          
D161 	KBDSNT          D03B 	KBDSST          D14F 	KBDST           
D251 	KBDST0          D233 	KBDST1          D235 	KBDSTC          
D157 	KBDSTI          D23F 	KBDSTM          D381 	KBDSTS          
D157 	KBDSTZ          0B19 	KBDTYP          D1F5 	KBDWA           
D214 	KBDWB           D219 	KBDWE           D1E7 	KBDWIN          
D1FC 	KBDWST          D1F0 	KBDWT           00C8 	KCURDW          
00C4 	KCURLF          00C7 	KCURPD          00C5 	KCURPU          
00C6 	KCURRI          00C2 	KCURUP          00C1 	KCURWL          
00C3 	KCURWR          0B47 	KEMLWT          0B4E 	KEMMC           
03AF 	KENN1           0000 	KES             0D90 	KLTBEF          
0D8F 	KLTKOM          06A0 	KM06            0676 	KM3454          
0692 	KM3458          06AE 	KM36            0668 	KM37            
06BC 	KM3S            0684 	KM8454          0655 	KMODI1          
0661 	KMODI2          064B 	KMODIF          0006 	KMODL           
066A 	KMODT           004A 	KRITBG          004C 	KRITEN          
0000 	L2BAHN          D2F5 	LAMPB0          D2E9 	LAMPB1          
D2DD 	LAMPB2          D2D1 	LAMPB3          D2C8 	LAMPB6          
0040 	LAMPBF          D2FE 	LAMPBN          D2B0 	LAMPEN          
D2B4 	LAMPLT          E5C0 	LIST            D6F1 	LISTI           
E5B4 	LISTST          0081 	LKALTC          07BF 	LMP04           
07C1 	LMP04E          07B3 	LMP04W          0772 	LMP06           
0788 	LMP06E          0788 	LMP34           07A6 	LMP3404         
079B 	LMP34A          07A1 	LMP34B          07B0 	LMP34C          
07BF 	LMP34E          07A6 	LMP34W          07C1 	LMP36           
07D4 	LMP36A          07DA 	LMP36B          07F8 	LMP36E          
07DF 	LMP36W          0004 	LMPB2B          0005 	LMPB2R          
078C 	LMPB34          07C5 	LMPB36          07DF 	LMPDG06         
07EC 	LMPDGW          0006 	LMPERR          0007 	LMPHCP          
D30A 	LMPOUT          D30D 	LMPOW           0000 	LMPSL0          
0001 	LMPSL1          0002 	LMPSL2          0003 	LMPSL3          
D740 	LOUTTO          D742 	LOUTTP          D6F9 	LOUTW1          
D717 	LOUTWF          D6F7 	LOUTWS          D6FB 	LOUTWT          
0058 	LPTCTR          0058 	LPTCTS          005E 	LPTDAT          
D12F 	LPTI            D6E5 	LPTO            D75B 	LPTST           
005F 	LPTSTA          D79A 	LSTLPT          D6F1 	LSTO            
D6F1 	LSTOCH          D816 	LSTSB3          D83C 	LSTSD1          
D845 	LSTSD2          D825 	LSTSDC          D800 	LSTSE0          
D80A 	LSTSE1          D820 	LSTSR           D820 	LSTSR1          
BIOS CP/A, Buerocomputer (A5120/30 u. ae.)	MACRO-80 V3.50	25-Oct-85	Page	S-5


D761 	LSTST           D761 	LSTSTI          D77D 	LSTTTY          
D7B7 	LSTUC1          D768 	LSYNCH          000C 	LTPCS           
0001 	LTPDC           0006 	LTPI            000B 	LTPINI          
0004 	LTPO            D888 	LTPOT5          D885 	LTPOW5          
0008 	LTPS            0003 	LTPSC           0002 	LTPSD           
0000 	LTPST           000A 	LTPW5           E216 	LWEXIS          
0006 	M8_16           0004 	MAXLW           E6D3 	MBRECO          
0000 	MKD256          00A8 	MODADR          00DB 	MONC            
0000 	MONITOR         0000 	MPROT           E6D7 	MRECA           
E6D4 	MRECOA          E6E4 	MRECOD          E6D7 	MRECOL          
E6DB 	MRECOR          DF68 	NFDEI2          0AA3 	NJUNG3          
E0E8 	NOERR           DF3B 	NOLW            DFD8 	NPOST0          
E637 	NSTPSP          E64E 	NSYNLR          E554 	NT1STZ          
0000 	N_PAGEN         0007 	N_PE            0002 	N_RAMEN         
0005 	N_S             0003 	N_STOP          0005 	N_TRQ8          
0003 	N_VI            0001 	N_WRITE         0000 	OEM             
0000 	OSS             038C 	PAINIT          E498 	PARERR          
0362 	PARMES          E47F 	PARROU          038F 	PBINIT          
00E0 	PF0C            00E1 	PF1C            00E2 	PF2C            
00E3 	PF3C            00E4 	PF4C            00E5 	PF5C            
00E6 	PF6C            00E7 	PF7C            00E8 	PF8C            
00E9 	PF9C            00EA 	PFAC            00EB 	PFBC            
00EC 	PFCC            00ED 	PFDC            00EE 	PFEC            
00EF 	PFFC            E03F 	PHRW            E043 	PHRWW           
E041 	PHRWW1          0007 	PHYACT          0000 	PIOA_0          
0001 	PIOA_1          0002 	PIOA_2          D773 	PORTPR          
D773 	PORTPZ          E068 	PREC            E1CD 	PRET1           
E1CA 	PRET3           E1BF 	PRET4           E1BD 	PRETX           
0006 	PRRESET         E08A 	PSIDE0          E08C 	PSIDE1          
E096 	PSIDE2          E5A8 	PUNCH           E6B9 	PUTMES          
E03F 	PVRW1           E048 	PVRW2           0000 	RAF             
0000 	RAMBYT          0D70 	RAMEAD          0981 	RAMEH           
0D55 	RAMERT          0D85 	RAMETE          0001 	RAMFL           
0040 	RAMKB           E473 	RAMOFF          E440 	RAMON           
09BC 	RAMTEN          099C 	RAMTER          0D49 	RAMTOK          
0D27 	RAMTT           096A 	RAMTZ           E41D 	RDRAMF          
E048 	RDWR            DBFF 	READ            E59C 	READER          
E590 	READES          0000 	REBOOT          0004 	RESET16         
E4BF 	RET             E497 	RETTEA          0000 	RNA             
0018 	RQMASK          DEFD 	RTRACK          E2B6 	SECAN1          
E158 	SECANZ          DB83 	SECTRAN         E215 	SEERC           
00D1 	SEL0            00D2 	SEL1            00D4 	SEL2            
00D8 	SEL3            DA5A 	SEL48           DA9D 	SELD40          
DB5C 	SELDAL          DAEB 	SELDDR          DA71 	SELDL1          
DB57 	SELDLA          DA66 	SELDLE          DADD 	SELDO0          
DADE 	SELDOF          D978 	SELDSK          DAA5 	SELDSS          
DA78 	SELDSV          DA87 	SELDXL          DB63 	SELEXT          
DB63 	SELEXX          DAA5 	SELSET          DA56 	SELSS           
D9E3 	SELSTZ          DA2B 	SELSY0          DA2E 	SELSY1          
DA1B 	SELSY2          DA30 	SELSYS          E354 	SERR            
E35B 	SERR1           E365 	SERR2           E123 	SERRX           
E766 	SETCLD          DB7E 	SETDMA          DF1E 	SETECR          
DF25 	SETESP          DB79 	SETSEC          DB74 	SETTRK          
DB22 	SF128E          DB05 	SF128Z          0000 	SG0P            
0001 	SG1B            E2C1 	SIDLEN          E2C0 	SIDSEC          
E2BE 	SIDSID          E2BD 	SIDTR           DF33 	SP13            
E178 	SP74            00CC 	SPCCE           00CA 	SPCCLR          
00CB 	SPCCNC          00C0 	SPCDEL          00CD 	SPCINS          
00CE 	SPCKOR          00CF 	SPCROL          00D0 	SPCROR          
DFDE 	SPE             E214 	SPERC           E13E 	SPERR2          
E138 	SPERR4          D721 	SPIOER          E219 	SPNRL           
DFDE 	SPPRTY          DFF8 	SPRE            DFF4 	SPVE            
BIOS CP/A, Buerocomputer (A5120/30 u. ae.)	MACRO-80 V3.50	25-Oct-85	Page	S-6


E0A3 	SRDSID          DFFE 	STEP            E001 	STEP0           
E005 	STEP2           E016 	STEPW           E014 	STEPW1          
E6AF 	STOPCH          E67E 	STOPNU          0004 	STOPRQ          
E668 	STOPRT          E66B 	STOPZ           E68F 	STOPZ2          
E69B 	STOPZ3          E676 	STOPZU          00DE 	STPC            
E6A2 	STPCHP          EFF4 	STPSTK          0001 	STPVAR          
0006 	STZAUS          D5FB 	SWILMP          00D9 	SYLC            
D03D 	SYNFLG          0003 	SYNLRQ          D03E 	SYNSEM          
000C 	SYSCTC          E568 	T1NMO1          E562 	T1NMO2          
E522 	T1UHR1          E51B 	T1UHR2          E54A 	T1UHR3          
E54E 	T1UHR4          E52D 	T1UHRE          E554 	T1UHRN          
E4D7 	T5IHL           03A0 	TESTK1          03A8 	TESTK2          
0043 	TIM1CN          0003 	TIM1CT          E4FD 	TIM1IT          
E4CB 	TIM1OF          E4C4 	TIM1ON          E4C6 	TIM1OT          
0045 	TIM1RT          E50D 	TIM1UP          E554 	TIM1UU          
0041 	TIM5CN          0002 	TIM5CT          E4CF 	TIM5IT          
E4C0 	TIM5OF          E4B9 	TIM5ON          E4BB 	TIM5OT          
0030 	TIM5ZK          0100 	TPA             C205 	TPAEND          
0007 	TREN            E020 	TRK0            E039 	TRK0F           
E022 	TRK0I           E02B 	TRK0S           0394 	TSTKNG          
000C 	TTYCTR          000C 	TTYCTS          0050 	TTYDAT          
D12F 	TTYI            D6DF 	TTYO            D755 	TTYST           
0051 	TTYSTA          0024 	TYP80           00A0 	TYPC34          
0080 	TYPC37          0010 	TYPC3S          0014 	UC1BFL          
D963 	UC1BFP          D964 	UC1BUF          000C 	UC1CTR          
000C 	UC1CTS          0050 	UC1DAT          D949 	UC1ERR          
D8C1 	UC1I            D8BD 	UC1I2           D8C5 	UC1II           
0004 	UC1IL           D8EC 	UC1IRD          D8C5 	UC1IW           
D6EB 	UC1O            D931 	UC1RI1          D941 	UC1RI2          
D8FF 	UC1RIN          D92C 	UC1RIR          D896 	UC1SI           
D8B5 	UC1SI1          D892 	UC1ST           0051 	UC1STA          
09DA 	UHRCHR          0A09 	UHRIF1          09C5 	UHRIN1          
0A75 	UHRIN4          0A13 	UHRINB          0A23 	UHRINC          
0A67 	UHRINE          0A07 	UHRINF          0A2D 	UHRINI          
0A03 	UHRINL          0A64 	UHRINN          0A57 	UHRINS          
0A00 	UHRINZ          0001 	UHRVAR          09D7 	UHRW4           
0001 	UMLAUT          D67D 	UMLCN1          0002 	UMLFLG          
000B 	UMLLEN          D680 	UMLTB1          D68B 	UMLTB2          
DF04 	UNACNT          DF05 	UNADEV          DF08 	UNASEC          
DBF3 	UNATR1          DF06 	UNATRK          0059 	VERSJ           
0009 	VERSM           0019 	VERST           E6C5 	WAIT10          
E6CA 	WAIT1Z          E6C8 	WAIT2Z          E6F6 	WARMST          
E707 	WBINIT          0000 	WBOOTV          DB87 	WRITE           
E0B5 	WRITPT          E3FA 	WRRAMF          DEB5 	XLT             
DFEB 	XMAXTR          DFDC 	XPVRW           00DD 	Z000            
00DC 	Z00C            00F0 	ZBL0            00DC 	ZBL00           
00DD 	ZBL000          00F1 	ZBL1            00F2 	ZBL2            
00F3 	ZBL3            00F4 	ZBL4            00F5 	ZBL5            
00F6 	ZBL6            00F7 	ZBL7            00F8 	ZBL8            
00F9 	ZBL9            00FC 	ZBLA            00C9 	ZBLB            
00FE 	ZBLC            00FA 	ZBLKOM          00FB 	ZBLMIN          
0000 	ZSIBM           0001 	ZSUML           



No Fatal error(s)


 	UMLLEN          D680 	UMLTB1          D68B 	UMLTB2          
DF04 	UNACNT          DF05 	UNADEV          D